Component: ARM Compiler 5.06 update 4 (build 422) Tool: armlink [4d35d2]

==============================================================================

Section Cross References

    ssi.o(i.SSIIntRegister) refers to ssi.o(i._SSIIntNumberGet) for _SSIIntNumberGet
    ssi.o(i.SSIIntRegister) refers to interrupt.o(i.IntRegister) for IntRegister
    ssi.o(i.SSIIntRegister) refers to interrupt.o(i.IntEnable) for IntEnable
    ssi.o(i.SSIIntUnregister) refers to ssi.o(i._SSIIntNumberGet) for _SSIIntNumberGet
    ssi.o(i.SSIIntUnregister) refers to interrupt.o(i.IntDisable) for IntDisable
    ssi.o(i.SSIIntUnregister) refers to interrupt.o(i.IntUnregister) for IntUnregister
    ssi.o(i._SSIIntNumberGet) refers to ssi.o(.constdata) for g_ppui32SSIIntMap
    sysctl.o(i.SysCtlClockFreqSet) refers to sysctl.o(i._SysCtlMemTimingGet) for _SysCtlMemTimingGet
    sysctl.o(i.SysCtlClockFreqSet) refers to sysctl.o(i._SysCtlFrequencyGet) for _SysCtlFrequencyGet
    sysctl.o(i.SysCtlClockFreqSet) refers to sysctl.o(.constdata) for g_pui32Xtals
    sysctl.o(i.SysCtlClockGet) refers to sysctl.o(.constdata) for g_pui32Xtals
    sysctl.o(i.SysCtlClockSet) refers to sysctl.o(.emb_text) for SysCtlDelay
    sysctl.o(i.SysCtlClockSet) refers to vari.o(.data) for SysRCC_CFG
    sysctl.o(i.SysCtlDeepSleep) refers to cpu.o(.emb_text) for CPUwfi
    sysctl.o(i.SysCtlDeepSleepClockConfigSet) refers to sysctl.o(i._SysCtlMemTimingGet) for _SysCtlMemTimingGet
    sysctl.o(i.SysCtlIntRegister) refers to interrupt.o(i.IntRegister) for IntRegister
    sysctl.o(i.SysCtlIntRegister) refers to interrupt.o(i.IntEnable) for IntEnable
    sysctl.o(i.SysCtlIntUnregister) refers to interrupt.o(i.IntDisable) for IntDisable
    sysctl.o(i.SysCtlIntUnregister) refers to interrupt.o(i.IntUnregister) for IntUnregister
    sysctl.o(i.SysCtlSleep) refers to cpu.o(.emb_text) for CPUwfi
    sysctl.o(i._SysCtlMemTimingGet) refers to sysctl.o(.constdata) for g_sXTALtoMEMTIM
    sysexc.o(i.SysExcIntRegister) refers to sysexc.o(i._SysExcIntNumberGet) for _SysExcIntNumberGet
    sysexc.o(i.SysExcIntRegister) refers to interrupt.o(i.IntRegister) for IntRegister
    sysexc.o(i.SysExcIntRegister) refers to interrupt.o(i.IntEnable) for IntEnable
    sysexc.o(i.SysExcIntUnregister) refers to sysexc.o(i._SysExcIntNumberGet) for _SysExcIntNumberGet
    sysexc.o(i.SysExcIntUnregister) refers to interrupt.o(i.IntDisable) for IntDisable
    sysexc.o(i.SysExcIntUnregister) refers to interrupt.o(i.IntUnregister) for IntUnregister
    systick.o(i.SysTickIntRegister) refers to interrupt.o(i.IntRegister) for IntRegister
    systick.o(i.SysTickIntUnregister) refers to interrupt.o(i.IntUnregister) for IntUnregister
    timer.o(i.TimerIntRegister) refers to timer.o(i._TimerIntNumberGet) for _TimerIntNumberGet
    timer.o(i.TimerIntRegister) refers to interrupt.o(i.IntRegister) for IntRegister
    timer.o(i.TimerIntRegister) refers to interrupt.o(i.IntEnable) for IntEnable
    timer.o(i.TimerIntUnregister) refers to timer.o(i._TimerIntNumberGet) for _TimerIntNumberGet
    timer.o(i.TimerIntUnregister) refers to interrupt.o(i.IntDisable) for IntDisable
    timer.o(i.TimerIntUnregister) refers to interrupt.o(i.IntUnregister) for IntUnregister
    timer.o(i._TimerIntNumberGet) refers to timer.o(.constdata) for g_ppui32TimerIntMap
    uart.o(i.UARTConfigSetExpClk) refers to uart.o(i.UARTDisable) for UARTDisable
    uart.o(i.UARTConfigSetExpClk) refers to uart.o(i.UARTEnable) for UARTEnable
    uart.o(i.UARTIntRegister) refers to uart.o(i._UARTIntNumberGet) for _UARTIntNumberGet
    uart.o(i.UARTIntRegister) refers to interrupt.o(i.IntRegister) for IntRegister
    uart.o(i.UARTIntRegister) refers to interrupt.o(i.IntEnable) for IntEnable
    uart.o(i.UARTIntUnregister) refers to uart.o(i._UARTIntNumberGet) for _UARTIntNumberGet
    uart.o(i.UARTIntUnregister) refers to interrupt.o(i.IntDisable) for IntDisable
    uart.o(i.UARTIntUnregister) refers to interrupt.o(i.IntUnregister) for IntUnregister
    uart.o(i._UARTIntNumberGet) refers to uart.o(.constdata) for g_ppui32UARTIntMap
    udma.o(i.uDMAIntRegister) refers to interrupt.o(i.IntRegister) for IntRegister
    udma.o(i.uDMAIntRegister) refers to interrupt.o(i.IntEnable) for IntEnable
    udma.o(i.uDMAIntUnregister) refers to interrupt.o(i.IntDisable) for IntDisable
    udma.o(i.uDMAIntUnregister) refers to interrupt.o(i.IntUnregister) for IntUnregister
    watchdog.o(i.WatchdogIntRegister) refers to interrupt.o(i.IntRegister) for IntRegister
    watchdog.o(i.WatchdogIntRegister) refers to interrupt.o(i.IntEnable) for IntEnable
    watchdog.o(i.WatchdogIntUnregister) refers to interrupt.o(i.IntDisable) for IntDisable
    watchdog.o(i.WatchdogIntUnregister) refers to interrupt.o(i.IntUnregister) for IntUnregister
    can.o(i.CANBitRateSet) refers to can.o(.constdata) for g_ui16CANBitValues
    can.o(i.CANIntRegister) refers to can.o(i._CANIntNumberGet) for _CANIntNumberGet
    can.o(i.CANIntRegister) refers to interrupt.o(i.IntRegister) for IntRegister
    can.o(i.CANIntRegister) refers to interrupt.o(i.IntEnable) for IntEnable
    can.o(i.CANIntUnregister) refers to can.o(i._CANIntNumberGet) for _CANIntNumberGet
    can.o(i.CANIntUnregister) refers to interrupt.o(i.IntDisable) for IntDisable
    can.o(i.CANIntUnregister) refers to interrupt.o(i.IntUnregister) for IntUnregister
    can.o(i.CANMessageGet) refers to can.o(i._CANDataRegRead) for _CANDataRegRead
    can.o(i.CANMessageSet) refers to can.o(i._CANDataRegWrite) for _CANDataRegWrite
    eeprom.o(i.EEPROMInit) refers to sysctl.o(.emb_text) for SysCtlDelay
    eeprom.o(i.EEPROMInit) refers to eeprom.o(i._EEPROMWaitForDone) for _EEPROMWaitForDone
    eeprom.o(i.EEPROMInit) refers to sysctl.o(i.SysCtlPeripheralReset) for SysCtlPeripheralReset
    eeprom.o(i.EEPROMIntClear) refers to eeprom.o(i._EEPROMSectorMaskClear) for _EEPROMSectorMaskClear
    eeprom.o(i.EEPROMMassErase) refers to eeprom.o(i._EEPROMSectorMaskClear) for _EEPROMSectorMaskClear
    eeprom.o(i.EEPROMMassErase) refers to eeprom.o(i._EEPROMWaitForDone) for _EEPROMWaitForDone
    eeprom.o(i.EEPROMMassErase) refers to sysctl.o(i.SysCtlPeripheralReset) for SysCtlPeripheralReset
    eeprom.o(i.EEPROMMassErase) refers to sysctl.o(.emb_text) for SysCtlDelay
    eeprom.o(i.EEPROMProgram) refers to eeprom.o(i._EEPROMSectorMaskSet) for _EEPROMSectorMaskSet
    eeprom.o(i.EEPROMProgram) refers to eeprom.o(i._EEPROMSectorMaskClear) for _EEPROMSectorMaskClear
    eeprom.o(i.EEPROMProgramNonBlocking) refers to eeprom.o(i._EEPROMSectorMaskSet) for _EEPROMSectorMaskSet
    eeprom.o(i._EEPROMSectorMaskClear) refers to sysctl.o(.emb_text) for SysCtlDelay
    eeprom.o(i._EEPROMSectorMaskSet) refers to sysctl.o(.emb_text) for SysCtlDelay
    flash.o(i.FlashIntRegister) refers to interrupt.o(i.IntRegister) for IntRegister
    flash.o(i.FlashIntRegister) refers to interrupt.o(i.IntEnable) for IntEnable
    flash.o(i.FlashIntUnregister) refers to interrupt.o(i.IntDisable) for IntDisable
    flash.o(i.FlashIntUnregister) refers to interrupt.o(i.IntUnregister) for IntUnregister
    flash.o(i.FlashProtectGet) refers to flash.o(.constdata) for g_pui32FMPRERegs
    flash.o(i.FlashProtectSet) refers to flash.o(.constdata) for g_pui32FMPRERegs
    gpio.o(i.GPIOIntRegister) refers to gpio.o(i._GPIOIntNumberGet) for _GPIOIntNumberGet
    gpio.o(i.GPIOIntRegister) refers to interrupt.o(i.IntRegister) for IntRegister
    gpio.o(i.GPIOIntRegister) refers to interrupt.o(i.IntEnable) for IntEnable
    gpio.o(i.GPIOIntUnregister) refers to gpio.o(i._GPIOIntNumberGet) for _GPIOIntNumberGet
    gpio.o(i.GPIOIntUnregister) refers to interrupt.o(i.IntDisable) for IntDisable
    gpio.o(i.GPIOIntUnregister) refers to interrupt.o(i.IntUnregister) for IntUnregister
    gpio.o(i.GPIOPinConfigure) refers to gpio.o(.constdata) for g_pui32GPIOBaseAddrs
    gpio.o(i.GPIOPinTypeADC) refers to gpio.o(i.GPIODirModeSet) for GPIODirModeSet
    gpio.o(i.GPIOPinTypeADC) refers to gpio.o(i.GPIOPadConfigSet) for GPIOPadConfigSet
    gpio.o(i.GPIOPinTypeCAN) refers to gpio.o(i.GPIODirModeSet) for GPIODirModeSet
    gpio.o(i.GPIOPinTypeCAN) refers to gpio.o(i.GPIOPadConfigSet) for GPIOPadConfigSet
    gpio.o(i.GPIOPinTypeCIR) refers to gpio.o(i.GPIODirModeSet) for GPIODirModeSet
    gpio.o(i.GPIOPinTypeCIR) refers to gpio.o(i.GPIOPadConfigSet) for GPIOPadConfigSet
    gpio.o(i.GPIOPinTypeComparator) refers to gpio.o(i.GPIODirModeSet) for GPIODirModeSet
    gpio.o(i.GPIOPinTypeComparator) refers to gpio.o(i.GPIOPadConfigSet) for GPIOPadConfigSet
    gpio.o(i.GPIOPinTypeEPI) refers to gpio.o(i.GPIODirModeSet) for GPIODirModeSet
    gpio.o(i.GPIOPinTypeEPI) refers to gpio.o(i.GPIOPadConfigSet) for GPIOPadConfigSet
    gpio.o(i.GPIOPinTypeEthernetLED) refers to gpio.o(i.GPIODirModeSet) for GPIODirModeSet
    gpio.o(i.GPIOPinTypeEthernetLED) refers to gpio.o(i.GPIOPadConfigSet) for GPIOPadConfigSet
    gpio.o(i.GPIOPinTypeEthernetMII) refers to gpio.o(i.GPIODirModeSet) for GPIODirModeSet
    gpio.o(i.GPIOPinTypeEthernetMII) refers to gpio.o(i.GPIOPadConfigSet) for GPIOPadConfigSet
    gpio.o(i.GPIOPinTypeFan) refers to gpio.o(i.GPIODirModeSet) for GPIODirModeSet
    gpio.o(i.GPIOPinTypeFan) refers to gpio.o(i.GPIOPadConfigSet) for GPIOPadConfigSet
    gpio.o(i.GPIOPinTypeGPIOInput) refers to gpio.o(i.GPIODirModeSet) for GPIODirModeSet
    gpio.o(i.GPIOPinTypeGPIOInput) refers to gpio.o(i.GPIOPadConfigSet) for GPIOPadConfigSet
    gpio.o(i.GPIOPinTypeGPIOOutput) refers to gpio.o(i.GPIOPadConfigSet) for GPIOPadConfigSet
    gpio.o(i.GPIOPinTypeGPIOOutput) refers to gpio.o(i.GPIODirModeSet) for GPIODirModeSet
    gpio.o(i.GPIOPinTypeGPIOOutputOD) refers to gpio.o(i.GPIOPadConfigSet) for GPIOPadConfigSet
    gpio.o(i.GPIOPinTypeGPIOOutputOD) refers to gpio.o(i.GPIODirModeSet) for GPIODirModeSet
    gpio.o(i.GPIOPinTypeI2C) refers to gpio.o(i.GPIODirModeSet) for GPIODirModeSet
    gpio.o(i.GPIOPinTypeI2C) refers to gpio.o(i.GPIOPadConfigSet) for GPIOPadConfigSet
    gpio.o(i.GPIOPinTypeI2CSCL) refers to gpio.o(i.GPIODirModeSet) for GPIODirModeSet
    gpio.o(i.GPIOPinTypeI2CSCL) refers to gpio.o(i.GPIOPadConfigSet) for GPIOPadConfigSet
    gpio.o(i.GPIOPinTypeKBColumn) refers to gpio.o(i.GPIODirModeSet) for GPIODirModeSet
    gpio.o(i.GPIOPinTypeKBColumn) refers to gpio.o(i.GPIOPadConfigSet) for GPIOPadConfigSet
    gpio.o(i.GPIOPinTypeKBRow) refers to gpio.o(i.GPIODirModeSet) for GPIODirModeSet
    gpio.o(i.GPIOPinTypeKBRow) refers to gpio.o(i.GPIOPadConfigSet) for GPIOPadConfigSet
    gpio.o(i.GPIOPinTypeLCD) refers to gpio.o(i.GPIODirModeSet) for GPIODirModeSet
    gpio.o(i.GPIOPinTypeLCD) refers to gpio.o(i.GPIOPadConfigSet) for GPIOPadConfigSet
    gpio.o(i.GPIOPinTypeLEDSeq) refers to gpio.o(i.GPIODirModeSet) for GPIODirModeSet
    gpio.o(i.GPIOPinTypeLEDSeq) refers to gpio.o(i.GPIOPadConfigSet) for GPIOPadConfigSet
    gpio.o(i.GPIOPinTypeLPC) refers to gpio.o(i.GPIODirModeSet) for GPIODirModeSet
    gpio.o(i.GPIOPinTypeLPC) refers to gpio.o(i.GPIOPadConfigSet) for GPIOPadConfigSet
    gpio.o(i.GPIOPinTypePECIRx) refers to gpio.o(i.GPIODirModeSet) for GPIODirModeSet
    gpio.o(i.GPIOPinTypePECIRx) refers to gpio.o(i.GPIOPadConfigSet) for GPIOPadConfigSet
    gpio.o(i.GPIOPinTypePECITx) refers to gpio.o(i.GPIODirModeSet) for GPIODirModeSet
    gpio.o(i.GPIOPinTypePECITx) refers to gpio.o(i.GPIOPadConfigSet) for GPIOPadConfigSet
    gpio.o(i.GPIOPinTypePWM) refers to gpio.o(i.GPIODirModeSet) for GPIODirModeSet
    gpio.o(i.GPIOPinTypePWM) refers to gpio.o(i.GPIOPadConfigSet) for GPIOPadConfigSet
    gpio.o(i.GPIOPinTypeQEI) refers to gpio.o(i.GPIODirModeSet) for GPIODirModeSet
    gpio.o(i.GPIOPinTypeQEI) refers to gpio.o(i.GPIOPadConfigSet) for GPIOPadConfigSet
    gpio.o(i.GPIOPinTypeSSI) refers to gpio.o(i.GPIODirModeSet) for GPIODirModeSet
    gpio.o(i.GPIOPinTypeSSI) refers to gpio.o(i.GPIOPadConfigSet) for GPIOPadConfigSet
    gpio.o(i.GPIOPinTypeTimer) refers to gpio.o(i.GPIODirModeSet) for GPIODirModeSet
    gpio.o(i.GPIOPinTypeTimer) refers to gpio.o(i.GPIOPadConfigSet) for GPIOPadConfigSet
    gpio.o(i.GPIOPinTypeUART) refers to gpio.o(i.GPIODirModeSet) for GPIODirModeSet
    gpio.o(i.GPIOPinTypeUART) refers to gpio.o(i.GPIOPadConfigSet) for GPIOPadConfigSet
    gpio.o(i.GPIOPinTypeUSBAnalog) refers to gpio.o(i.GPIODirModeSet) for GPIODirModeSet
    gpio.o(i.GPIOPinTypeUSBAnalog) refers to gpio.o(i.GPIOPadConfigSet) for GPIOPadConfigSet
    gpio.o(i.GPIOPinTypeUSBDigital) refers to gpio.o(i.GPIODirModeSet) for GPIODirModeSet
    gpio.o(i.GPIOPinTypeUSBDigital) refers to gpio.o(i.GPIOPadConfigSet) for GPIOPadConfigSet
    gpio.o(i.GPIOPinTypeWakeHigh) refers to gpio.o(i.GPIODirModeSet) for GPIODirModeSet
    gpio.o(i.GPIOPinTypeWakeHigh) refers to gpio.o(i.GPIOPadConfigSet) for GPIOPadConfigSet
    gpio.o(i.GPIOPinTypeWakeLow) refers to gpio.o(i.GPIODirModeSet) for GPIODirModeSet
    gpio.o(i.GPIOPinTypeWakeLow) refers to gpio.o(i.GPIOPadConfigSet) for GPIOPadConfigSet
    gpio.o(i._GPIOIntNumberGet) refers to gpio.o(.constdata) for g_ppui32GPIOIntMapBlizzard
    interrupt.o(i.IntDisable) refers to interrupt.o(.constdata) for g_pui32Dii16Regs
    interrupt.o(i.IntEnable) refers to interrupt.o(.constdata) for g_pui32EnRegs
    interrupt.o(i.IntIsEnabled) refers to interrupt.o(.constdata) for g_pui32EnRegs
    interrupt.o(i.IntMasterDisable) refers to cpu.o(.emb_text) for CPUcpsid
    interrupt.o(i.IntMasterEnable) refers to cpu.o(.emb_text) for CPUcpsie
    interrupt.o(i.IntPendClear) refers to interrupt.o(.constdata) for g_pui32UnpendRegs
    interrupt.o(i.IntPendSet) refers to interrupt.o(.constdata) for g_pui32PendRegs
    interrupt.o(i.IntPriorityGet) refers to interrupt.o(.constdata) for g_pui32Regs
    interrupt.o(i.IntPriorityGroupingGet) refers to interrupt.o(.constdata) for g_pui32Priority
    interrupt.o(i.IntPriorityGroupingSet) refers to interrupt.o(.constdata) for g_pui32Priority
    interrupt.o(i.IntPriorityMaskGet) refers to cpu.o(.emb_text) for CPUbasepriGet
    interrupt.o(i.IntPriorityMaskSet) refers to cpu.o(.emb_text) for CPUbasepriSet
    interrupt.o(i.IntPrioritySet) refers to interrupt.o(.constdata) for g_pui32Regs
    interrupt.o(i.IntRegister) refers to interrupt.o(vtable) for g_pfnRAMVectors
    interrupt.o(i.IntUnregister) refers to interrupt.o(i._IntDefaultHandler) for _IntDefaultHandler
    interrupt.o(i.IntUnregister) refers to interrupt.o(vtable) for g_pfnRAMVectors
    mpu.o(i.MPUIntRegister) refers to interrupt.o(i.IntRegister) for IntRegister
    mpu.o(i.MPUIntRegister) refers to interrupt.o(i.IntEnable) for IntEnable
    mpu.o(i.MPUIntUnregister) refers to interrupt.o(i.IntDisable) for IntDisable
    mpu.o(i.MPUIntUnregister) refers to interrupt.o(i.IntUnregister) for IntUnregister
    adc.o(i.ADCIntRegister) refers to adc.o(i._ADCIntNumberGet) for _ADCIntNumberGet
    adc.o(i.ADCIntRegister) refers to interrupt.o(i.IntRegister) for IntRegister
    adc.o(i.ADCIntRegister) refers to interrupt.o(i.IntEnable) for IntEnable
    adc.o(i.ADCIntUnregister) refers to adc.o(i._ADCIntNumberGet) for _ADCIntNumberGet
    adc.o(i.ADCIntUnregister) refers to interrupt.o(i.IntDisable) for IntDisable
    adc.o(i.ADCIntUnregister) refers to interrupt.o(i.IntUnregister) for IntUnregister
    adc.o(i.ADCSoftwareOversampleConfigure) refers to adc.o(.data) for g_pui8OversampleFactor
    adc.o(i.ADCSoftwareOversampleDataGet) refers to adc.o(.data) for g_pui8OversampleFactor
    adc.o(i.ADCSoftwareOversampleStepConfigure) refers to adc.o(.data) for g_pui8OversampleFactor
    startup_rvmdk.o(RESET) refers to startup_rvmdk.o(STACK) for StackMem
    startup_rvmdk.o(RESET) refers to interrupt_api.o(i.SysTickIntHandler) for SysTickIntHandler
    startup_rvmdk.o(RESET) refers to interrupt_api.o(i.GPIOAHandler) for GPIOAHandler
    startup_rvmdk.o(RESET) refers to interrupt_api.o(i.UART0IntHandler) for UART0IntHandler
    startup_rvmdk.o(RESET) refers to interrupt_api.o(i.UART1IntHandler) for UART1IntHandler
    startup_rvmdk.o(RESET) refers to interrupt_api.o(i.ADC0Handler) for ADC0Handler
    startup_rvmdk.o(RESET) refers to interrupt_api.o(i.WatchDogHandler) for WatchDogHandler
    startup_rvmdk.o(RESET) refers to interrupt_api.o(i.Timer0AIntHandler) for Timer0AIntHandler
    startup_rvmdk.o(RESET) refers to interrupt_api.o(i.Timer0BIntHandler) for Timer0BIntHandler
    startup_rvmdk.o(RESET) refers to interrupt_api.o(i.Timer1AIntHandler) for Timer1AIntHandler
    startup_rvmdk.o(RESET) refers to interrupt_api.o(i.Timer1BIntHandler) for Timer1BIntHandler
    startup_rvmdk.o(RESET) refers to interrupt_api.o(i.Timer2AIntHandler) for Timer2AIntHandler
    startup_rvmdk.o(RESET) refers to interrupt_api.o(i.Timer2BIntHandler) for Timer2BIntHandler
    startup_rvmdk.o(RESET) refers to interrupt_api.o(i.Timer3AIntHandler) for Timer3AIntHandler
    startup_rvmdk.o(RESET) refers to interrupt_api.o(i.Timer3BIntHandler) for Timer3BIntHandler
    startup_rvmdk.o(RESET) refers to interrupt_api.o(i.CAN0Handler) for CAN0Handler
    startup_rvmdk.o(RESET) refers to interrupt_api.o(i.CAN1Handler) for CAN1Handler
    startup_rvmdk.o(RESET) refers to interrupt_api.o(i.UART3IntHandler) for UART3IntHandler
    startup_rvmdk.o(RESET) refers to interrupt_api.o(i.UART5IntHandler) for UART5IntHandler
    startup_rvmdk.o(RESET) refers to interrupt_api.o(i.UART6IntHandler) for UART6IntHandler
    startup_rvmdk.o(RESET) refers to interrupt_api.o(i.Timer4AIntHandler) for Timer4AIntHandler
    startup_rvmdk.o(RESET) refers to interrupt_api.o(i.Timer4BIntHandler) for Timer4BIntHandler
    startup_rvmdk.o(RESET) refers to interrupt_api.o(i.Timer5AIntHandler) for Timer5AIntHandler
    startup_rvmdk.o(RESET) refers to interrupt_api.o(i.GPIOMHandler) for GPIOMHandler
    startup_rvmdk.o(RESET) refers to interrupt_api.o(i.GPIONHandler) for GPIONHandler
    startup_rvmdk.o(RESET) refers to entry.o(.ARM.Collect$$$$00000000) for __main
    can_api.o(i.CAN_LDATA_RX_Pr) refers to memcpya.o(.text) for __aeabi_memcpy
    can_api.o(i.CAN_LDATA_RX_Pr) refers to can_api.o(i.SLV_REQ_RETX) for SLV_REQ_RETX
    can_api.o(i.CAN_LDATA_RX_Pr) refers to can_api.o(.constdata) for CAN_LMSG_RX_TAB
    can_api.o(i.CAN_LDATA_RX_Pr) refers to vari.o(.bss) for CAN_LMSG_RX_Ptr
    can_api.o(i.CAN_LDATA_RX_Pr) refers to vari.o(.data) for CAN_LMSG_RX_TYPE
    can_api.o(i.CAN_LDATA_TX_Pr) refers to memcpya.o(.text) for __aeabi_memcpy
    can_api.o(i.CAN_LDATA_TX_Pr) refers to usr_lib.o(i.CAN_Tx_Msg) for CAN_Tx_Msg
    can_api.o(i.CAN_LDATA_TX_Pr) refers to vari.o(.data) for CAN_LMSG_TX_STS
    can_api.o(i.CAN_LDATA_TX_Pr) refers to vari.o(.bss) for CAN_LMSG_TX_Ptr
    can_api.o(i.Proc_CAN1_OvTm) refers to vari.o(.data) for CAN1_SMSG_TX_STS
    can_api.o(i.Proc_CAN1_SDATA_OBUF) refers to usr_lib.o(i.CAN1_Tx_Msg) for CAN1_Tx_Msg
    can_api.o(i.Proc_CAN1_SDATA_OBUF) refers to vari.o(.data) for CAN1_SDATA_MSG_OHead
    can_api.o(i.Proc_CAN1_SDATA_OBUF) refers to vari.o(.bss) for CAN1_SDATA_MSG_OBUF
    can_api.o(i.Proc_CAN1_STS) refers to init.o(i.Init_CAN1) for Init_CAN1
    can_api.o(i.Proc_CAN1_STS) refers to vari.o(.data) for CAN1_STS
    can_api.o(i.Proc_CAN1_STS) refers to bitvari.o(.data) for CAN1_ERR
    can_api.o(i.Proc_CAN_OvTm) refers to vari.o(.data) for CAN_LDATA_TX_STS
    can_api.o(i.Proc_CAN_OvTm) refers to vari.o(.bss) for CAN_LMSG_TX_Ptr
    can_api.o(i.Proc_CAN_STS) refers to init.o(i.Init_CAN0) for Init_CAN0
    can_api.o(i.Proc_CAN_STS) refers to vari.o(.data) for CAN_STS
    can_api.o(i.Proc_CAN_STS) refers to bitvari.o(.data) for CAN_ERR
    can_api.o(i.Proc_CNA1_SDATA_IBUF) refers to vari.o(.data) for CAN1_SDATA_MSG_IHead
    can_api.o(i.Proc_CNA1_SDATA_IBUF) refers to vari.o(.bss) for CAN1_SDATA_MSG_IBUF
    can_api.o(i.Proc_LDATA_MSG_IBUF) refers to can_api.o(i.CAN_LDATA_RX_Pr) for CAN_LDATA_RX_Pr
    can_api.o(i.Proc_LDATA_MSG_IBUF) refers to vari.o(.data) for CAN_LDATA_MSG_ITail
    can_api.o(i.Proc_LDATA_MSG_IBUF) refers to vari.o(.bss) for CAN_LDATA_MSG_IBUF
    can_api.o(i.Proc_LDATA_MSG_IBUF) refers to can_api.o(.constdata) for CAN_LMSG_TX_TAB
    can_api.o(i.Proc_Mst_Check) refers to usr_lib.o(i.CAN_Tx_Msg) for CAN_Tx_Msg
    can_api.o(i.Proc_Mst_Check) refers to vari.o(.data) for Echo_Sts
    can_api.o(i.Proc_Mst_Check) refers to init.o(.constdata) for CAN_MSG_SET_TAB
    can_api.o(i.Proc_Mst_Check) refers to bitvari.o(.data) for RST_FLAG
    can_api.o(i.Proc_SDATA_IBUF) refers to eng_err.o(i.Set_STD_CST_Pr) for Set_STD_CST_Pr
    can_api.o(i.Proc_SDATA_IBUF) refers to eng_err.o(i.Set_N_Pr) for Set_N_Pr
    can_api.o(i.Proc_SDATA_IBUF) refers to eng_err.o(i.ERR_CLR_Pr) for ERR_CLR_Pr
    can_api.o(i.Proc_SDATA_IBUF) refers to eng_err.o(i.ELEC_HEAD_RESET_Pr) for ELEC_HEAD_RESET_Pr
    can_api.o(i.Proc_SDATA_IBUF) refers to eng_err.o(i.MTR_PLUG_Pr) for MTR_PLUG_Pr
    can_api.o(i.Proc_SDATA_IBUF) refers to eng_err.o(i.CATCH_HB_Pr) for CATCH_HB_Pr
    can_api.o(i.Proc_SDATA_IBUF) refers to eng_err.o(i.Start_Stop_Pr) for Start_Stop_Pr
    can_api.o(i.Proc_SDATA_IBUF) refers to eng_err.o(i.Set_PLS_QUAD) for Set_PLS_QUAD
    can_api.o(i.Proc_SDATA_IBUF) refers to eng_err.o(i.BEEP_EN_Pr) for BEEP_EN_Pr
    can_api.o(i.Proc_SDATA_IBUF) refers to eng_err.o(i.Login_Verify_Sts) for Login_Verify_Sts
    can_api.o(i.Proc_SDATA_IBUF) refers to eng_err.o(i.Verify_Start_Pr) for Verify_Start_Pr
    can_api.o(i.Proc_SDATA_IBUF) refers to eng_err.o(i.Set_Mtr_Cst_Pr) for Set_Mtr_Cst_Pr
    can_api.o(i.Proc_SDATA_IBUF) refers to eng_err.o(i.PLS_SEL_Pr) for PLS_SEL_Pr
    can_api.o(i.Proc_SDATA_IBUF) refers to eng_err.o(i.Cnt_ENG_Pr) for Cnt_ENG_Pr
    can_api.o(i.Proc_SDATA_IBUF) refers to eng_err.o(i.ENG_CLR_Pr) for ENG_CLR_Pr
    can_api.o(i.Proc_SDATA_IBUF) refers to eng_err.o(i.PZ_ERR_Pr) for PZ_ERR_Pr
    can_api.o(i.Proc_SDATA_IBUF) refers to eng_err.o(i.Set_Pzbz_Pr) for Set_Pzbz_Pr
    can_api.o(i.Proc_SDATA_IBUF) refers to eng_err.o(i.Set_Pzzs_Pr) for Set_Pzzs_Pr
    can_api.o(i.Proc_SDATA_IBUF) refers to eng_err.o(i.Login_Sy_Sts) for Login_Sy_Sts
    can_api.o(i.Proc_SDATA_IBUF) refers to eng_err.o(i.Start_Sy_Pr) for Start_Sy_Pr
    can_api.o(i.Proc_SDATA_IBUF) refers to eng_err.o(i.CYCLE_PLS_SEL_Pr) for CYCLE_PLS_SEL_Pr
    can_api.o(i.Proc_SDATA_IBUF) refers to eng_err.o(i.DIVIDE_COEF_Pr) for DIVIDE_COEF_Pr
    can_api.o(i.Proc_SDATA_IBUF) refers to eng_err.o(i.MEA_MTR_CST_Pr) for MEA_MTR_CST_Pr
    can_api.o(i.Proc_SDATA_IBUF) refers to eng_err.o(i.Power_Test_Pr) for Power_Test_Pr
    can_api.o(i.Proc_SDATA_IBUF) refers to eng_err.o(i.MEA_PLS_CYCLE_Pr) for MEA_PLS_CYCLE_Pr
    can_api.o(i.Proc_SDATA_IBUF) refers to eng_err.o(i.WIRE_TYPE_Pr) for WIRE_TYPE_Pr
    can_api.o(i.Proc_SDATA_IBUF) refers to eng_err.o(i.ELEC_PLS_TYPE_Pr) for ELEC_PLS_TYPE_Pr
    can_api.o(i.Proc_SDATA_IBUF) refers to eng_err.o(i.Set_ZZ_PLS_Pr) for Set_ZZ_PLS_Pr
    can_api.o(i.Proc_SDATA_IBUF) refers to eng_err.o(i.PLS_ZZ_Pr) for PLS_ZZ_Pr
    can_api.o(i.Proc_SDATA_IBUF) refers to eng_err.o(i.ReSet_ZZ_PLS_Pr) for ReSet_ZZ_PLS_Pr
    can_api.o(i.Proc_SDATA_IBUF) refers to eng_err.o(i.Start_Ny_Pr) for Start_Ny_Pr
    can_api.o(i.Proc_SDATA_IBUF) refers to eng_err.o(i.Ny_Time_End_Pr) for Ny_Time_End_Pr
    can_api.o(i.Proc_SDATA_IBUF) refers to eng_err.o(i.Chg_U_In_Pr) for Chg_U_In_Pr
    can_api.o(i.Proc_SDATA_IBUF) refers to eng_err.o(i.STS_Light_Pr) for STS_Light_Pr
    can_api.o(i.Proc_SDATA_IBUF) refers to eng_err.o(i.Set_Sy_Ph) for Set_Sy_Ph
    can_api.o(i.Proc_SDATA_IBUF) refers to eng_err.o(i.Set_Min_CST_Pr) for Set_Min_CST_Pr
    can_api.o(i.Proc_SDATA_IBUF) refers to eng_err.o(i.Set_ZZ_Ds) for Set_ZZ_Ds
    can_api.o(i.Proc_SDATA_IBUF) refers to eng_err.o(i.Set_PLSHC) for Set_PLSHC
    can_api.o(i.Proc_SDATA_IBUF) refers to eng_err.o(i.Set_Sy) for Set_Sy
    can_api.o(i.Proc_SDATA_IBUF) refers to eng_err.o(i.Set_MFCLK_Mode) for Set_MFCLK_Mode
    can_api.o(i.Proc_SDATA_IBUF) refers to eng_err.o(i.Set_MFCLK_Type) for Set_MFCLK_Type
    can_api.o(i.Proc_SDATA_IBUF) refers to eng_err.o(i.Set_Elec_Pls) for Set_Elec_Pls
    can_api.o(i.Proc_SDATA_IBUF) refers to eng_err.o(i.RST_IJDQ) for RST_IJDQ
    can_api.o(i.Proc_SDATA_IBUF) refers to eng_err.o(i.LED_TST) for LED_TST
    can_api.o(i.Proc_SDATA_IBUF) refers to eng_err.o(i.RST_LED) for RST_LED
    can_api.o(i.Proc_SDATA_IBUF) refers to eng_err.o(i.Set_TZEN) for Set_TZEN
    can_api.o(i.Proc_SDATA_IBUF) refers to eng_err.o(i.Set_MBJEN) for Set_MBJEN
    can_api.o(i.Proc_SDATA_IBUF) refers to eng_err.o(i.Set_TS) for Set_TS
    can_api.o(i.Proc_SDATA_IBUF) refers to eng_err.o(i.Set_DXTZ) for Set_DXTZ
    can_api.o(i.Proc_SDATA_IBUF) refers to eng_err.o(i.Set_Master_Start) for Set_Master_Start
    can_api.o(i.Proc_SDATA_IBUF) refers to eng_err.o(i.Set_UCLOP) for Set_UCLOP
    can_api.o(i.Proc_SDATA_IBUF) refers to eng_err.o(i.Set_ZBTST) for Set_ZBTST
    can_api.o(i.Proc_SDATA_IBUF) refers to eng_err.o(i.Set_Light) for Set_Light
    can_api.o(i.Proc_SDATA_IBUF) refers to eng_err.o(i.Set_SLEDN) for Set_SLEDN
    can_api.o(i.Proc_SDATA_IBUF) refers to eng_err.o(i.Set_COM0SEL) for Set_COM0SEL
    can_api.o(i.Proc_SDATA_IBUF) refers to eng_err.o(i.Set_COM1SEL) for Set_COM1SEL
    can_api.o(i.Proc_SDATA_IBUF) refers to eng_err.o(i.Set_ZBLBIN) for Set_ZBLBIN
    can_api.o(i.Proc_SDATA_IBUF) refers to eng_err.o(i.Set_YXCTL) for Set_YXCTL
    can_api.o(i.Proc_SDATA_IBUF) refers to eng_err.o(i.Set_DOORCTL) for Set_DOORCTL
    can_api.o(i.Proc_SDATA_IBUF) refers to eng_err.o(i.Set_EQPMOD) for Set_EQPMOD
    can_api.o(i.Proc_SDATA_IBUF) refers to eng_err.o(i.Set_PULSET) for Set_PULSET
    can_api.o(i.Proc_SDATA_IBUF) refers to eng_err.o(i.Set_PULRUN) for Set_PULRUN
    can_api.o(i.Proc_SDATA_IBUF) refers to eng_err.o(i.Set_YKSET) for Set_YKSET
    can_api.o(i.Proc_SDATA_IBUF) refers to eng_err.o(i.Set_YKPULSE) for Set_YKPULSE
    can_api.o(i.Proc_SDATA_IBUF) refers to eng_err.o(i.Set_NPRS485) for Set_NPRS485
    can_api.o(i.Proc_SDATA_IBUF) refers to eng_err.o(i.Set_MTYPE) for Set_MTYPE
    can_api.o(i.Proc_SDATA_IBUF) refers to eng_err.o(i.Set_ADCONV) for Set_ADCONV
    can_api.o(i.Proc_SDATA_IBUF) refers to eng_err.o(i.Set_TTAB) for Set_TTAB
    can_api.o(i.Proc_SDATA_IBUF) refers to eng_err.o(i.Set_MEAPN) for Set_MEAPN
    can_api.o(i.Proc_SDATA_IBUF) refers to eng_err.o(i.Set_CHKP) for Set_CHKP
    can_api.o(i.Proc_SDATA_IBUF) refers to eng_err.o(i.Set_MTR_LCT_Com) for Set_MTR_LCT_Com
    can_api.o(i.Proc_SDATA_IBUF) refers to eng_err.o(i.Set_Clk_Freq_Pr) for Set_Clk_Freq_Pr
    can_api.o(i.Proc_SDATA_IBUF) refers to eng_err.o(i.Set_Clk_Time_Pr) for Set_Clk_Time_Pr
    can_api.o(i.Proc_SDATA_IBUF) refers to eng_err.o(i.Set_Clk_Ctl_Pr) for Set_Clk_Ctl_Pr
    can_api.o(i.Proc_SDATA_IBUF) refers to eng_err.o(i.Set_XuL_Ctl_Pr) for Set_XuL_Ctl_Pr
    can_api.o(i.Proc_SDATA_IBUF) refers to eng_err.o(i.Set_XuL_Pls_Num) for Set_XuL_Pls_Num
    can_api.o(i.Proc_SDATA_IBUF) refers to eng_err.o(i.Set_Disp_Mode) for Set_Disp_Mode
    can_api.o(i.Proc_SDATA_IBUF) refers to eng_err.o(i.Set_Reload_MtrD) for Set_Reload_MtrD
    can_api.o(i.Proc_SDATA_IBUF) refers to eng_err.o(i.Set_Reload_LctD) for Set_Reload_LctD
    can_api.o(i.Proc_SDATA_IBUF) refers to eng_err.o(i.Set_ReTx_MtrD) for Set_ReTx_MtrD
    can_api.o(i.Proc_SDATA_IBUF) refers to eng_err.o(i.Set_ReTx_LctD) for Set_ReTx_LctD
    can_api.o(i.Proc_SDATA_IBUF) refers to eng_err.o(i.Set_Time_Base) for Set_Time_Base
    can_api.o(i.Proc_SDATA_IBUF) refers to eng_err.o(i.Set_Red485) for Set_Red485
    can_api.o(i.Proc_SDATA_IBUF) refers to eng_err.o(i.Set_Read_Ver) for Set_Read_Ver
    can_api.o(i.Proc_SDATA_IBUF) refers to eng_err.o(i.Set_RSTS) for Set_RSTS
    can_api.o(i.Proc_SDATA_IBUF) refers to eng_err.o(i.JTAG_EN_Pr) for JTAG_EN_Pr
    can_api.o(i.Proc_SDATA_IBUF) refers to vari.o(.data) for CAN_SDATA_MSG_IHead
    can_api.o(i.Proc_SDATA_IBUF) refers to bitvari.o(.data) for MASTER_START
    can_api.o(i.Proc_SDATA_IBUF) refers to vari.o(.bss) for CAN_SDATA_MSG_IBUF
    can_api.o(i.Proc_SDATA_OBUF) refers to usr_lib.o(i.CAN_Tx_Msg) for CAN_Tx_Msg
    can_api.o(i.Proc_SDATA_OBUF) refers to vari.o(.data) for CAN_SDATA_MSG_OHead
    can_api.o(i.Proc_SDATA_OBUF) refers to bitvari.o(.data) for MASTER_START
    can_api.o(i.Proc_SDATA_OBUF) refers to vari.o(.bss) for CAN_SDATA_MSG_OBUF
    can_api.o(i.SDATA_MSG_OHead_ADD_ONE) refers to vari.o(.data) for CAN_SDATA_MSG_OHead
    can_api.o(i.SDATA_MSG_OHead_ADD_ONE) refers to vari.o(.bss) for CAN_SDATA_MSG_OBUF
    can_api.o(i.SLV_REQ_RETX) refers to usr_lib.o(i.CAN_Tx_Msg) for CAN_Tx_Msg
    can_api.o(i.SLV_REQ_RETX) refers to init.o(.constdata) for CAN_MSG_SET_TAB
    can_api.o(i.SLV_REQ_RETX) refers to vari.o(.data) for CAN_LMSG_RX_TYPE
    can_api.o(i.SLV_REQ_TX) refers to usr_lib.o(i.CAN_Tx_Msg) for CAN_Tx_Msg
    can_api.o(i.SLV_REQ_TX) refers to init.o(.constdata) for CAN_MSG_SET_TAB
    can_api.o(i.SLV_REQ_TX) refers to vari.o(.data) for CAN_LMSG_TX_TYPE
    can_api.o(.constdata) refers to vari.o(.bss) for Com0_OBuf
    can_api.o(.constdata) refers to vari.o(.data) for Com_Tx_Sts
    clk_err.o(i.Act_Freq_to_Set) refers to cdrcmple.o(.text) for __aeabi_cdrcmple
    clk_err.o(i.Act_Freq_to_Set) refers to ddiv.o(.text) for __aeabi_ddiv
    clk_err.o(i.Act_Freq_to_Set) refers to f2d.o(.text) for __aeabi_f2d
    clk_err.o(i.Act_Freq_to_Set) refers to dmul.o(.text) for __aeabi_dmul
    clk_err.o(i.Act_Freq_to_Set) refers to d2f.o(.text) for __aeabi_d2f
    clk_err.o(i.Act_Freq_to_Set) refers to cdcmple.o(.text) for __aeabi_cdcmple
    clk_err.o(i.Act_Freq_to_Set) refers to dadd.o(.text) for __aeabi_dadd
    clk_err.o(i.Act_Freq_to_Set) refers to dfixui.o(.text) for __aeabi_d2uiz
    clk_err.o(i.Act_Freq_to_Set) refers to ffltui.o(.text) for __aeabi_ui2f
    clk_err.o(i.Act_Freq_to_Set) refers to fdiv.o(.text) for __aeabi_fdiv
    clk_err.o(i.Act_Freq_to_Set) refers to fmul.o(.text) for __aeabi_fmul
    clk_err.o(i.Act_Freq_to_Set) refers to cfcmple.o(.text) for __aeabi_cfcmpeq
    clk_err.o(i.Act_Freq_to_Set) refers to vari.o(.data) for CLK_ACT_FREQ
    clk_err.o(i.Cal_Clk_Reload) refers to ffltui.o(.text) for __aeabi_ui2f
    clk_err.o(i.Cal_Clk_Reload) refers to fmul.o(.text) for __aeabi_fmul
    clk_err.o(i.Cal_Clk_Reload) refers to f2d.o(.text) for __aeabi_f2d
    clk_err.o(i.Cal_Clk_Reload) refers to dadd.o(.text) for __aeabi_dadd
    clk_err.o(i.Cal_Clk_Reload) refers to dfixui.o(.text) for __aeabi_d2uiz
    clk_err.o(i.Cal_Clk_Reload) refers to cfcmple.o(.text) for __aeabi_cfcmple
    clk_err.o(i.Cal_Clk_Reload) refers to dfltui.o(.text) for __aeabi_ui2d
    clk_err.o(i.Cal_Clk_Reload) refers to dmul.o(.text) for __aeabi_dmul
    clk_err.o(i.Cal_Clk_Reload) refers to fdiv.o(.text) for __aeabi_fdiv
    clk_err.o(i.Cal_Clk_Reload) refers to ffixui.o(.text) for __aeabi_f2uiz
    clk_err.o(i.Cal_Clk_Reload) refers to timer.o(i.TimerDisable) for TimerDisable
    clk_err.o(i.Cal_Clk_Reload) refers to timer.o(i.TimerLoadSet) for TimerLoadSet
    clk_err.o(i.Cal_Clk_Reload) refers to timer.o(i.TimerMatchSet) for TimerMatchSet
    clk_err.o(i.Cal_Clk_Reload) refers to timer.o(i.TimerIntClear) for TimerIntClear
    clk_err.o(i.Cal_Clk_Reload) refers to timer.o(i.TimerEnable) for TimerEnable
    clk_err.o(i.Cal_Clk_Reload) refers to vari.o(.data) for MTYPE
    clk_err.o(i.Cal_Clk_Reload) refers to bitvari.o(.data) for FIRST_CLK_PLS
    clk_err.o(i.Check_PLL) refers to init.o(i.Init_Pll) for Init_Pll
    clk_err.o(i.Check_PLL) refers to bitvari.o(.data) for REF_JZ_INT
    clk_err.o(i.Check_PLL) refers to vari.o(.data) for NEW_PLL_Ref_Timer
    clk_err.o(i.Check_Std_Clk) refers to timer.o(i.TimerDisable) for TimerDisable
    clk_err.o(i.Check_Std_Clk) refers to timer.o(i.TimerIntClear) for TimerIntClear
    clk_err.o(i.Check_Std_Clk) refers to timer.o(i.TimerLoadSet) for TimerLoadSet
    clk_err.o(i.Check_Std_Clk) refers to timer.o(i.TimerEnable) for TimerEnable
    clk_err.o(i.Check_Std_Clk) refers to vari.o(.data) for Timer_8ms
    clk_err.o(i.Check_Std_Clk) refers to bitvari.o(.data) for NO_STD_CLK
    clk_err.o(i.Clk_No_Stable) refers to vari.o(.data) for Disp_Choose
    clk_err.o(i.Clk_No_Stable) refers to bitvari.o(.data) for GZ_FLAG
    clk_err.o(i.Ext_WDTFeed) refers to gpio.o(i.GPIOPinRead) for GPIOPinRead
    clk_err.o(i.Ext_WDTFeed) refers to gpio.o(i.GPIOPinWrite) for GPIOPinWrite
    clk_err.o(i.Ext_WDTFeed) refers to vari.o(.data) for Timer_8ms
    clk_err.o(i.IO_INT_REEN) refers to gpio.o(i.GPIOIntTypeSet) for GPIOIntTypeSet
    clk_err.o(i.IO_INT_REEN) refers to gpio.o(i.GPIOIntClear) for GPIOIntClear
    clk_err.o(i.IO_INT_REEN) refers to gpio.o(i.GPIOIntEnable) for GPIOIntEnable
    clk_err.o(i.IO_INT_REEN) refers to bitvari.o(.data) for GDT_INT_REEN
    clk_err.o(i.IO_INT_REEN) refers to vari.o(.data) for Timer_8ms
    clk_err.o(i.IO_INT_REEN) refers to eng_err.o(.constdata) for CYCLE_PIN_TAB
    clk_err.o(i.Key_Proc) refers to eng_err.o(i.ELEC_HEAD_RESET_Pr) for ELEC_HEAD_RESET_Pr
    clk_err.o(i.Key_Proc) refers to bitvari.o(.data) for PLUG_CHG_FLAG
    clk_err.o(i.Key_Proc) refers to vari.o(.data) for WORK_MODE
    clk_err.o(i.MEA_CLK_FREQ) refers to timer.o(i.TimerDisable) for TimerDisable
    clk_err.o(i.MEA_CLK_FREQ) refers to cfcmple.o(.text) for __aeabi_cfcmple
    clk_err.o(i.MEA_CLK_FREQ) refers to fmul.o(.text) for __aeabi_fmul
    clk_err.o(i.MEA_CLK_FREQ) refers to clk_err.o(i.Cal_Clk_Reload) for Cal_Clk_Reload
    clk_err.o(i.MEA_CLK_FREQ) refers to timer.o(i.TimerEnable) for TimerEnable
    clk_err.o(i.MEA_CLK_FREQ) refers to clk_err.o(i.No_BSZMC_Pr) for No_BSZMC_Pr
    clk_err.o(i.MEA_CLK_FREQ) refers to dfltui.o(.text) for __aeabi_ui2d
    clk_err.o(i.MEA_CLK_FREQ) refers to ddiv.o(.text) for __aeabi_ddiv
    clk_err.o(i.MEA_CLK_FREQ) refers to clk_err.o(i.Clk_No_Stable) for Clk_No_Stable
    clk_err.o(i.MEA_CLK_FREQ) refers to clk_err.o(i.Act_Freq_to_Set) for Act_Freq_to_Set
    clk_err.o(i.MEA_CLK_FREQ) refers to printfa.o(i.__0sprintf) for __2sprintf
    clk_err.o(i.MEA_CLK_FREQ) refers to init.o(i.Fill_Space_StrCpy) for Fill_Space_StrCpy
    clk_err.o(i.MEA_CLK_FREQ) refers to f2d.o(.text) for __aeabi_f2d
    clk_err.o(i.MEA_CLK_FREQ) refers to cdrcmple.o(.text) for __aeabi_cdrcmple
    clk_err.o(i.MEA_CLK_FREQ) refers to cdcmple.o(.text) for __aeabi_cdcmple
    clk_err.o(i.MEA_CLK_FREQ) refers to dmul.o(.text) for __aeabi_dmul
    clk_err.o(i.MEA_CLK_FREQ) refers to dadd.o(.text) for __aeabi_dadd
    clk_err.o(i.MEA_CLK_FREQ) refers to dfixui.o(.text) for __aeabi_d2uiz
    clk_err.o(i.MEA_CLK_FREQ) refers to ffltui.o(.text) for __aeabi_ui2f
    clk_err.o(i.MEA_CLK_FREQ) refers to fdiv.o(.text) for __aeabi_fdiv
    clk_err.o(i.MEA_CLK_FREQ) refers to disp.o(i.Copy_Str_To_DSBUF) for Copy_Str_To_DSBUF
    clk_err.o(i.MEA_CLK_FREQ) refers to bitvari.o(.data) for NEW_CLK_PLS
    clk_err.o(i.MEA_CLK_FREQ) refers to vari.o(.data) for WORK_MODE
    clk_err.o(i.MEA_CLK_FREQ) refers to vari.o(.bss) for TEMP_STR
    clk_err.o(i.MEA_CLK_FREQ) refers to eng_err.o(i.Send_Data) for Send_Data
    clk_err.o(i.MEA_XUL_TIME) refers to clk_err.o(i.No_BSZMC_Pr) for No_BSZMC_Pr
    clk_err.o(i.MEA_XUL_TIME) refers to ffltui.o(.text) for __aeabi_ui2f
    clk_err.o(i.MEA_XUL_TIME) refers to fdiv.o(.text) for __aeabi_fdiv
    clk_err.o(i.MEA_XUL_TIME) refers to f2d.o(.text) for __aeabi_f2d
    clk_err.o(i.MEA_XUL_TIME) refers to printfa.o(i.__0sprintf) for __2sprintf
    clk_err.o(i.MEA_XUL_TIME) refers to init.o(i.Fill_Space_StrCpy) for Fill_Space_StrCpy
    clk_err.o(i.MEA_XUL_TIME) refers to disp.o(i.Copy_Str_To_DSBUF) for Copy_Str_To_DSBUF
    clk_err.o(i.MEA_XUL_TIME) refers to eng_err.o(i.Send_Data) for Send_Data
    clk_err.o(i.MEA_XUL_TIME) refers to vari.o(.data) for WORK_MODE
    clk_err.o(i.MEA_XUL_TIME) refers to bitvari.o(.data) for NEW_XUL_PLS
    clk_err.o(i.MEA_XUL_TIME) refers to vari.o(.bss) for XUL_TIME_ASC
    clk_err.o(i.No_BSZMC_Pr) refers to strcpy.o(.text) for strcpy
    clk_err.o(i.No_BSZMC_Pr) refers to eng_err.o(i.Send_Data) for Send_Data
    clk_err.o(i.No_BSZMC_Pr) refers to vari.o(.data) for CANT_STR
    clk_err.o(i.No_BSZMC_Pr) refers to bitvari.o(.data) for GZ_FLAG
    clk_err.o(i.No_SZMC_Pr) refers to strcpy.o(.text) for strcpy
    clk_err.o(i.No_SZMC_Pr) refers to eng_err.o(i.Send_Data) for Send_Data
    clk_err.o(i.No_SZMC_Pr) refers to vari.o(.data) for CLK_Timer
    clk_err.o(i.No_SZMC_Pr) refers to bitvari.o(.data) for GZ_FLAG
    clk_err.o(i.PULSE_CTL_Pro) refers to gpio.o(i.GPIOPinRead) for GPIOPinRead
    clk_err.o(i.PULSE_CTL_Pro) refers to gpio.o(i.GPIOPinWrite) for GPIOPinWrite
    clk_err.o(i.PULSE_CTL_Pro) refers to vari.o(.data) for MTR_MOD
    clk_err.o(i.PULSE_CTL_Pro) refers to bitvari.o(.data) for Pulse1_RUN_CTL
    clk_err.o(i.Proc_AUTO_PLS) refers to bitvari.o(.data) for NZTZ_NEW_PLS
    clk_err.o(i.Proc_AUTO_PLS) refers to vari.o(.data) for Timer_1ms
    clk_err.o(i.Proc_Clk_OvTm) refers to clk_err.o(i.No_SZMC_Pr) for No_SZMC_Pr
    clk_err.o(i.Proc_Clk_OvTm) refers to f2d.o(.text) for __aeabi_f2d
    clk_err.o(i.Proc_Clk_OvTm) refers to cdcmple.o(.text) for __aeabi_cdcmple
    clk_err.o(i.Proc_Clk_OvTm) refers to fdiv.o(.text) for __aeabi_fdiv
    clk_err.o(i.Proc_Clk_OvTm) refers to clk_err.o(i.Cal_Clk_Reload) for Cal_Clk_Reload
    clk_err.o(i.Proc_Clk_OvTm) refers to timer.o(i.TimerEnable) for TimerEnable
    clk_err.o(i.Proc_Clk_OvTm) refers to vari.o(.data) for WORK_MODE
    clk_err.o(i.Proc_Clk_OvTm) refers to bitvari.o(.data) for NO_CLK_PLS
    clk_err.o(i.Proc_HC165) refers to clk_err.o(i.READ_HC165_DATA) for READ_HC165_DATA
    clk_err.o(i.Proc_HC165) refers to gpio.o(i.GPIOPinWrite) for GPIOPinWrite
    clk_err.o(i.Proc_HC165) refers to vari.o(.data) for Timer_1ms
    clk_err.o(i.Proc_HC165) refers to bitvari.o(.data) for MTR_PLUG
    clk_err.o(i.Proc_LUNCI_PLS) refers to eng_err.o(i.Send_Data) for Send_Data
    clk_err.o(i.Proc_LUNCI_PLS) refers to bitvari.o(.data) for YKSIG_EN
    clk_err.o(i.Proc_LUNCI_PLS) refers to vari.o(.data) for Timer_1ms
    clk_err.o(i.Proc_MFuction_PLS) refers to eng_err.o(i.Send_Data) for Send_Data
    clk_err.o(i.Proc_MFuction_PLS) refers to eng_err.o(i.RST_IJDQ) for RST_IJDQ
    clk_err.o(i.Proc_MFuction_PLS) refers to memseta.o(.text) for __aeabi_memset
    clk_err.o(i.Proc_MFuction_PLS) refers to disp.o(i.Update_N_Buf) for Update_N_Buf
    clk_err.o(i.Proc_MFuction_PLS) refers to disp.o(i.Update_Mtr_Num) for Update_Mtr_Num
    clk_err.o(i.Proc_MFuction_PLS) refers to bitvari.o(.data) for GZ_FLAG
    clk_err.o(i.Proc_MFuction_PLS) refers to vari.o(.data) for Timer_1ms
    clk_err.o(i.READ_HC165_DATA) refers to gpio.o(i.GPIOPinRead) for GPIOPinRead
    disp.o(i.Copy_Str_To_DSBUF) refers to bitvari.o(.data) for GZ_FLAG
    disp.o(i.Copy_Str_To_DSBUF) refers to vari.o(.data) for SOLID_CFG
    disp.o(i.Disp_Data) refers to disp.o(i.SSIDataLen) for SSIDataLen
    disp.o(i.Disp_Data) refers to ssi.o(i.SSIDataPut) for SSIDataPut
    disp.o(i.Disp_Data) refers to sysctl.o(.emb_text) for SysCtlDelay
    disp.o(i.Disp_Data) refers to vari.o(.data) for Disp_En_Timer
    disp.o(i.Disp_Data) refers to disp.o(.constdata) for Disp_Code_Tab
    disp.o(i.Disp_Long_Data) refers to bitvari.o(.data) for GZ_FLAG
    disp.o(i.Disp_Long_Data) refers to vari.o(.data) for Disp_Buf
    disp.o(i.Disp_Time_Pr) refers to disp.o(i.Disp_Data) for Disp_Data
    disp.o(i.Disp_Time_Pr) refers to vari.o(.data) for Timer_8ms
    disp.o(i.Reset_HD7279) refers to disp.o(i.SSIDataLen) for SSIDataLen
    disp.o(i.Reset_HD7279) refers to gpio.o(i.GPIOPinWrite) for GPIOPinWrite
    disp.o(i.Reset_HD7279) refers to sysctl.o(.emb_text) for SysCtlDelay
    disp.o(i.Reset_HD7279) refers to ssi.o(i.SSIDataPut) for SSIDataPut
    disp.o(i.Update_Mtr_Num) refers to vari.o(.data) for Disp_Choose
    disp.o(i.Update_N_Buf) refers to vari.o(.data) for CURRENT_N
    disp.o(i.Update_N_Buf) refers to bitvari.o(.data) for GZ_FLAG
    init.o(i.Check_SMtr_Tab_Sts) refers to flash.o(i.FlashErase) for FlashErase
    init.o(i.Check_SMtr_Tab_Sts) refers to vari.o(.data) for Current_Save_Tab
    init.o(i.Check_SMtr_Tab_Sts) refers to vari.o(.bss) for Save_Tab_Sts
    init.o(i.Fill_Space_StrCpy) refers to strlen.o(.text) for strlen
    init.o(i.Init_Adc) refers to sysctl.o(i.SysCtlPeripheralEnable) for SysCtlPeripheralEnable
    init.o(i.Init_Adc) refers to gpio.o(i.GPIOPinTypeADC) for GPIOPinTypeADC
    init.o(i.Init_Adc) refers to sysctl.o(i.SysCtlADCSpeedSet) for SysCtlADCSpeedSet
    init.o(i.Init_Adc) refers to adc.o(i.ADCSequenceConfigure) for ADCSequenceConfigure
    init.o(i.Init_Adc) refers to adc.o(i.ADCSequenceStepConfigure) for ADCSequenceStepConfigure
    init.o(i.Init_Adc) refers to adc.o(i.ADCHardwareOversampleConfigure) for ADCHardwareOversampleConfigure
    init.o(i.Init_Adc) refers to adc.o(i.ADCIntEnable) for ADCIntEnable
    init.o(i.Init_Adc) refers to adc.o(i.ADCSequenceEnable) for ADCSequenceEnable
    init.o(i.Init_Adc) refers to adc.o(i.ADCProcessorTrigger) for ADCProcessorTrigger
    init.o(i.Init_CAN0) refers to sysctl.o(i.SysCtlPeripheralEnable) for SysCtlPeripheralEnable
    init.o(i.Init_CAN0) refers to can.o(i.CANDisable) for CANDisable
    init.o(i.Init_CAN0) refers to can.o(i.CANInit) for CANInit
    init.o(i.Init_CAN0) refers to can.o(i.CANBitRateSet) for CANBitRateSet
    init.o(i.Init_CAN0) refers to can.o(i.CANIntEnable) for CANIntEnable
    init.o(i.Init_CAN0) refers to usr_lib.o(i.Set_MsgRam) for Set_MsgRam
    init.o(i.Init_CAN0) refers to can.o(i.CANEnable) for CANEnable
    init.o(i.Init_CAN0) refers to can.o(i.CANStatusGet) for CANStatusGet
    init.o(i.Init_CAN0) refers to vari.o(.data) for Sysclk
    init.o(i.Init_CAN1) refers to sysctl.o(i.SysCtlPeripheralEnable) for SysCtlPeripheralEnable
    init.o(i.Init_CAN1) refers to can.o(i.CANDisable) for CANDisable
    init.o(i.Init_CAN1) refers to can.o(i.CANInit) for CANInit
    init.o(i.Init_CAN1) refers to can.o(i.CANBitRateSet) for CANBitRateSet
    init.o(i.Init_CAN1) refers to can.o(i.CANIntEnable) for CANIntEnable
    init.o(i.Init_CAN1) refers to usr_lib.o(i.Set_CAN1MsgRam) for Set_CAN1MsgRam
    init.o(i.Init_CAN1) refers to can.o(i.CANEnable) for CANEnable
    init.o(i.Init_CAN1) refers to can.o(i.CANStatusGet) for CANStatusGet
    init.o(i.Init_CAN1) refers to vari.o(.data) for Sysclk
    init.o(i.Init_Com) refers to ffltui.o(.text) for __aeabi_ui2f
    init.o(i.Init_Com) refers to fdiv.o(.text) for __aeabi_fdiv
    init.o(i.Init_Com) refers to cfcmple.o(.text) for __aeabi_cfcmple
    init.o(i.Init_Com) refers to cfrcmple.o(.text) for __aeabi_cfrcmple
    init.o(i.Init_Com) refers to f2d.o(.text) for __aeabi_f2d
    init.o(i.Init_Com) refers to dadd.o(.text) for __aeabi_dadd
    init.o(i.Init_Com) refers to dfixi.o(.text) for __aeabi_d2iz
    init.o(i.Init_Com) refers to uart.o(i.UARTConfigSetExpClk) for UARTConfigSetExpClk
    init.o(i.Init_Com) refers to uart.o(i.UARTFIFOLevelSet) for UARTFIFOLevelSet
    init.o(i.Init_Com) refers to uart.o(i.UARTIntEnable) for UARTIntEnable
    init.o(i.Init_Com) refers to uart_api.o(.constdata) for UART_PORT
    init.o(i.Init_Com) refers to vari.o(.bss) for Uart_Para
    init.o(i.Init_Com) refers to init.o(.constdata) for Parity_Set_TAB
    init.o(i.Init_Com) refers to vari.o(.data) for Com_Rx_OvTm
    init.o(i.Init_Gpio) refers to sysctl.o(i.SysCtlPeripheralEnable) for SysCtlPeripheralEnable
    init.o(i.Init_Gpio) refers to gpio.o(i.GPIOPinTypeGPIOOutput) for GPIOPinTypeGPIOOutput
    init.o(i.Init_Gpio) refers to gpio.o(i.GPIOPinConfigure) for GPIOPinConfigure
    init.o(i.Init_Gpio) refers to gpio.o(i.GPIOPinTypeSSI) for GPIOPinTypeSSI
    init.o(i.Init_Gpio) refers to gpio.o(i.GPIOPinTypeGPIOInput) for GPIOPinTypeGPIOInput
    init.o(i.Init_Gpio) refers to gpio.o(i.GPIOPinTypeI2C) for GPIOPinTypeI2C
    init.o(i.Init_Gpio) refers to gpio.o(i.GPIOPinTypeI2CSCL) for GPIOPinTypeI2CSCL
    init.o(i.Init_Gpio) refers to gpio.o(i.GPIOPinTypeUART) for GPIOPinTypeUART
    init.o(i.Init_Gpio) refers to gpio.o(i.GPIOPinTypeCAN) for GPIOPinTypeCAN
    init.o(i.Init_Gpio) refers to gpio.o(i.GPIOPinTypeTimer) for GPIOPinTypeTimer
    init.o(i.Init_Gpio) refers to gpio.o(i.GPIOPadConfigSet) for GPIOPadConfigSet
    init.o(i.Init_Gpio) refers to gpio.o(i.GPIOIntTypeSet) for GPIOIntTypeSet
    init.o(i.Init_Gpio) refers to gpio.o(i.GPIOPinWrite) for GPIOPinWrite
    init.o(i.Init_Int) refers to interrupt.o(i.IntPrioritySet) for IntPrioritySet
    init.o(i.Init_Int) refers to interrupt.o(i.IntEnable) for IntEnable
    init.o(i.Init_Pll) refers to sysctl.o(.emb_text) for SysCtlDelay
    init.o(i.Init_Pll) refers to sysctl.o(i.SysCtlClockSet) for SysCtlClockSet
    init.o(i.Init_Pll) refers to sysctl.o(i.SysCtlClockGet) for SysCtlClockGet
    init.o(i.Init_Pll) refers to vari.o(.data) for Sysclk
    init.o(i.Init_Ram) refers to init.o(i.Read_Mtr_Numb) for Read_Mtr_Numb
    init.o(i.Init_Ram) refers to init.o(i.Check_SMtr_Tab_Sts) for Check_SMtr_Tab_Sts
    init.o(i.Init_Ram) refers to memseta.o(.text) for __aeabi_memset
    init.o(i.Init_Ram) refers to f2d.o(.text) for __aeabi_f2d
    init.o(i.Init_Ram) refers to printfa.o(i.__0sprintf) for __2sprintf
    init.o(i.Init_Ram) refers to init.o(i.Fill_Space_StrCpy) for Fill_Space_StrCpy
    init.o(i.Init_Ram) refers to clk_err.o(i.Cal_Clk_Reload) for Cal_Clk_Reload
    init.o(i.Init_Ram) refers to eng_err.o(i.Cal_Gp_Relaod) for Cal_Gp_Relaod
    init.o(i.Init_Ram) refers to eng_err.o(i.Cal_STD_ENG_CNT_VAL) for Cal_STD_ENG_CNT_VAL
    init.o(i.Init_Ram) refers to disp.o(i.Update_N_Buf) for Update_N_Buf
    init.o(i.Init_Ram) refers to disp.o(i.Update_Mtr_Num) for Update_Mtr_Num
    init.o(i.Init_Ram) refers to eng_err.o(i.Init_DEVICE_IO) for Init_DEVICE_IO
    init.o(i.Init_Ram) refers to gpio.o(i.GPIOIntClear) for GPIOIntClear
    init.o(i.Init_Ram) refers to vari.o(.data) for Disp_Buf
    init.o(i.Init_Ram) refers to bitvari.o(.data) for SINGLE_OR_THREE
    init.o(i.Init_Ram) refers to vari.o(.bss) for TEMP_STR
    init.o(i.Init_Ssi) refers to sysctl.o(i.SysCtlPeripheralEnable) for SysCtlPeripheralEnable
    init.o(i.Init_Ssi) refers to ssi.o(i.SSIConfigSetExpClk) for SSIConfigSetExpClk
    init.o(i.Init_Ssi) refers to ssi.o(i.SSIEnable) for SSIEnable
    init.o(i.Init_Ssi) refers to vari.o(.data) for Sysclk
    init.o(i.Init_SysTick) refers to systick.o(i.SysTickPeriodSet) for SysTickPeriodSet
    init.o(i.Init_SysTick) refers to systick.o(i.SysTickEnable) for SysTickEnable
    init.o(i.Init_SysTick) refers to systick.o(i.SysTickIntEnable) for SysTickIntEnable
    init.o(i.Init_SysTick) refers to vari.o(.data) for Sysclk
    init.o(i.Init_Timer) refers to sysctl.o(i.SysCtlPeripheralEnable) for SysCtlPeripheralEnable
    init.o(i.Init_Timer) refers to timer.o(i.TimerConfigure) for TimerConfigure
    init.o(i.Init_Timer) refers to timer.o(i.TimerControlStall) for TimerControlStall
    init.o(i.Init_Timer) refers to timer.o(i.TimerControlEvent) for TimerControlEvent
    init.o(i.Init_Timer) refers to timer.o(i.TimerLoadSet) for TimerLoadSet
    init.o(i.Init_Timer) refers to timer.o(i.TimerMatchSet) for TimerMatchSet
    init.o(i.Init_Timer) refers to timer.o(i.TimerIntEnable) for TimerIntEnable
    init.o(i.Init_Timer) refers to timer.o(i.TimerEnable) for TimerEnable
    init.o(i.Init_Uart) refers to sysctl.o(i.SysCtlPeripheralEnable) for SysCtlPeripheralEnable
    init.o(i.Init_Uart) refers to init.o(i.Init_Com) for Init_Com
    init.o(i.Init_Uart) refers to vari.o(.bss) for Uart_Para
    init.o(i.Init_Uart) refers to init.o(.constdata) for UART_PARA_TAB
    init.o(i.Init_Wdt) refers to sysctl.o(i.SysCtlPeripheralEnable) for SysCtlPeripheralEnable
    init.o(i.Init_Wdt) refers to watchdog.o(i.WatchdogUnlock) for WatchdogUnlock
    init.o(i.Init_Wdt) refers to watchdog.o(i.WatchdogIntClear) for WatchdogIntClear
    init.o(i.Init_Wdt) refers to watchdog.o(i.WatchdogReloadSet) for WatchdogReloadSet
    init.o(i.Init_Wdt) refers to watchdog.o(i.WatchdogResetEnable) for WatchdogResetEnable
    init.o(i.Init_Wdt) refers to watchdog.o(i.WatchdogStallEnable) for WatchdogStallEnable
    init.o(i.Init_Wdt) refers to watchdog.o(i.WatchdogEnable) for WatchdogEnable
    init.o(i.Init_Wdt) refers to vari.o(.data) for Sysclk
    init.o(i.Read_Mtr_Numb) refers to sysctl.o(i.SysCtlPeripheralEnable) for SysCtlPeripheralEnable
    init.o(i.Read_Mtr_Numb) refers to sysctl.o(.emb_text) for SysCtlDelay
    init.o(i.Read_Mtr_Numb) refers to gpio.o(i.GPIOPinTypeGPIOInput) for GPIOPinTypeGPIOInput
    init.o(i.Read_Mtr_Numb) refers to gpio.o(i.GPIOPinRead) for GPIOPinRead
    init.o(i.Read_Mtr_Numb) refers to gpio.o(i.GPIOPinTypeGPIOOutput) for GPIOPinTypeGPIOOutput
    init.o(i.Read_Mtr_Numb) refers to gpio.o(i.GPIOPinWrite) for GPIOPinWrite
    init.o(i.Read_Mtr_Numb) refers to vari.o(.data) for Mtr_Numb_ID
    init.o(i.Solid_Save_Tab) refers to flash.o(i.FlashErase) for FlashErase
    init.o(i.Solid_Save_Tab) refers to flash.o(i.FlashProgram) for FlashProgram
    init.o(i.Solid_Save_Tab) refers to vari.o(.bss) for Save_Tab_Sts
    init.o(i.Solid_Save_Tab) refers to vari.o(.data) for Current_Save_Tab
    interrupt_api.o(i.ADC0Handler) refers to adc.o(i.ADCIntClear) for ADCIntClear
    interrupt_api.o(i.ADC0Handler) refers to adc.o(i.ADCSequenceDataGet) for ADCSequenceDataGet
    interrupt_api.o(i.ADC0Handler) refers to vari.o(.bss) for ADC_SEQ_Data
    interrupt_api.o(i.ADC0Handler) refers to vari.o(.data) for ADC_Data
    interrupt_api.o(i.CAN0Handler) refers to can.o(i.CANIntStatus) for CANIntStatus
    interrupt_api.o(i.CAN0Handler) refers to can.o(i.CANStatusGet) for CANStatusGet
    interrupt_api.o(i.CAN0Handler) refers to can.o(i.CANErrCntrGet) for CANErrCntrGet
    interrupt_api.o(i.CAN0Handler) refers to usr_lib.o(i.CAN_Rx_Msg) for CAN_Rx_Msg
    interrupt_api.o(i.CAN0Handler) refers to can.o(i.CANIntClear) for CANIntClear
    interrupt_api.o(i.CAN0Handler) refers to vari.o(.data) for CAN_STS
    interrupt_api.o(i.CAN0Handler) refers to bitvari.o(.data) for CAN_ERR
    interrupt_api.o(i.CAN0Handler) refers to init.o(.constdata) for CAN_MSG_SET_TAB
    interrupt_api.o(i.CAN0Handler) refers to vari.o(.bss) for CAN_MSG_Rx
    interrupt_api.o(i.DZPLS_Interrupt_Pr) refers to timer.o(i.TimerValueGet) for TimerValueGet
    interrupt_api.o(i.DZPLS_Interrupt_Pr) refers to timer.o(i.TimerLoadSet) for TimerLoadSet
    interrupt_api.o(i.DZPLS_Interrupt_Pr) refers to timer.o(i.TimerEnable) for TimerEnable
    interrupt_api.o(i.DZPLS_Interrupt_Pr) refers to vari.o(.data) for STD_ENG_Cnt
    interrupt_api.o(i.DZPLS_Interrupt_Pr) refers to bitvari.o(.data) for DZ_NEW_PLS
    interrupt_api.o(i.GPIOAHandler) refers to gpio.o(i.GPIOIntStatus) for GPIOIntStatus
    interrupt_api.o(i.GPIOAHandler) refers to gpio.o(i.GPIOIntClear) for GPIOIntClear
    interrupt_api.o(i.GPIOAHandler) refers to gpio.o(i.GPIOIntDisable) for GPIOIntDisable
    interrupt_api.o(i.GPIOAHandler) refers to vari.o(.data) for Timer_8ms
    interrupt_api.o(i.GPIOAHandler) refers to bitvari.o(.data) for KEY_INT_REEN
    interrupt_api.o(i.GPIOMHandler) refers to timer.o(i.TimerValueGet) for TimerValueGet
    interrupt_api.o(i.GPIOMHandler) refers to gpio.o(i.GPIOIntStatus) for GPIOIntStatus
    interrupt_api.o(i.GPIOMHandler) refers to gpio.o(i.GPIOIntClear) for GPIOIntClear
    interrupt_api.o(i.GPIOMHandler) refers to interrupt_api.o(i.Mea_Period_Pr) for Mea_Period_Pr
    interrupt_api.o(i.GPIOMHandler) refers to gpio.o(i.GPIOIntDisable) for GPIOIntDisable
    interrupt_api.o(i.GPIOMHandler) refers to vari.o(.data) for STD_ENG_Cnt
    interrupt_api.o(i.GPIOMHandler) refers to bitvari.o(.data) for GDT_INT_REEN
    interrupt_api.o(i.GPIOMHandler) refers to eng_err.o(.constdata) for CYCLE_PIN_TAB
    interrupt_api.o(i.GPIONHandler) refers to gpio.o(i.GPIOIntStatus) for GPIOIntStatus
    interrupt_api.o(i.GPIONHandler) refers to gpio.o(i.GPIOIntClear) for GPIOIntClear
    interrupt_api.o(i.GPIONHandler) refers to vari.o(.data) for Timer_1ms
    interrupt_api.o(i.GPIONHandler) refers to bitvari.o(.data) for NZTZ_NEW_PLS
    interrupt_api.o(i.Mea_Period_Pr) refers to gpio.o(i.GPIOIntDisable) for GPIOIntDisable
    interrupt_api.o(i.Mea_Period_Pr) refers to gpio.o(i.GPIOIntTypeSet) for GPIOIntTypeSet
    interrupt_api.o(i.Mea_Period_Pr) refers to eng_err.o(.constdata) for PORT_BASE_ADDR_TAB
    interrupt_api.o(i.Mea_Period_Pr) refers to vari.o(.data) for CYCLE_MEA_ID
    interrupt_api.o(i.Mea_Period_Pr) refers to bitvari.o(.data) for FIRST_ENG_PLS
    interrupt_api.o(i.SZPLS_Interrupt_Pr) refers to timer.o(i.TimerValueGet) for TimerValueGet
    interrupt_api.o(i.SZPLS_Interrupt_Pr) refers to timer.o(i.TimerLoadSet) for TimerLoadSet
    interrupt_api.o(i.SZPLS_Interrupt_Pr) refers to timer.o(i.TimerEnable) for TimerEnable
    interrupt_api.o(i.SZPLS_Interrupt_Pr) refers to timer.o(i.TimerDisable) for TimerDisable
    interrupt_api.o(i.SZPLS_Interrupt_Pr) refers to vari.o(.data) for CLK_RELOAD_VAL_N
    interrupt_api.o(i.SZPLS_Interrupt_Pr) refers to bitvari.o(.data) for NO_CLK_PLS
    interrupt_api.o(i.SysTickIntHandler) refers to uart.o(i.UARTCharsAvail) for UARTCharsAvail
    interrupt_api.o(i.SysTickIntHandler) refers to vari.o(.data) for Timer_1ms
    interrupt_api.o(i.Timer0AIntHandler) refers to timer.o(i.TimerIntStatus) for TimerIntStatus
    interrupt_api.o(i.Timer0AIntHandler) refers to timer.o(i.TimerIntClear) for TimerIntClear
    interrupt_api.o(i.Timer0AIntHandler) refers to timer.o(i.TimerLoadSet) for TimerLoadSet
    interrupt_api.o(i.Timer0AIntHandler) refers to timer.o(i.TimerEnable) for TimerEnable
    interrupt_api.o(i.Timer0BIntHandler) refers to timer.o(i.TimerIntStatus) for TimerIntStatus
    interrupt_api.o(i.Timer0BIntHandler) refers to timer.o(i.TimerIntClear) for TimerIntClear
    interrupt_api.o(i.Timer0BIntHandler) refers to timer.o(i.TimerLoadSet) for TimerLoadSet
    interrupt_api.o(i.Timer0BIntHandler) refers to timer.o(i.TimerEnable) for TimerEnable
    interrupt_api.o(i.Timer1AIntHandler) refers to timer.o(i.TimerIntStatus) for TimerIntStatus
    interrupt_api.o(i.Timer1AIntHandler) refers to timer.o(i.TimerIntClear) for TimerIntClear
    interrupt_api.o(i.Timer1AIntHandler) refers to timer.o(i.TimerLoadSet) for TimerLoadSet
    interrupt_api.o(i.Timer1AIntHandler) refers to timer.o(i.TimerEnable) for TimerEnable
    interrupt_api.o(i.Timer1BIntHandler) refers to timer.o(i.TimerIntStatus) for TimerIntStatus
    interrupt_api.o(i.Timer1BIntHandler) refers to timer.o(i.TimerIntClear) for TimerIntClear
    interrupt_api.o(i.Timer1BIntHandler) refers to timer.o(i.TimerLoadSet) for TimerLoadSet
    interrupt_api.o(i.Timer1BIntHandler) refers to timer.o(i.TimerEnable) for TimerEnable
    interrupt_api.o(i.Timer1BIntHandler) refers to vari.o(.data) for STD_ENG_Cnt
    interrupt_api.o(i.Timer1BIntHandler) refers to bitvari.o(.data) for NO_STD_ENG
    interrupt_api.o(i.Timer2AIntHandler) refers to timer.o(i.TimerIntStatus) for TimerIntStatus
    interrupt_api.o(i.Timer2AIntHandler) refers to timer.o(i.TimerIntClear) for TimerIntClear
    interrupt_api.o(i.Timer2AIntHandler) refers to timer.o(i.TimerLoadSet) for TimerLoadSet
    interrupt_api.o(i.Timer2AIntHandler) refers to timer.o(i.TimerEnable) for TimerEnable
    interrupt_api.o(i.Timer2AIntHandler) refers to vari.o(.data) for STD_CLK_Cnt
    interrupt_api.o(i.Timer2AIntHandler) refers to bitvari.o(.data) for NO_STD_CLK
    interrupt_api.o(i.Timer2BIntHandler) refers to timer.o(i.TimerIntStatus) for TimerIntStatus
    interrupt_api.o(i.Timer2BIntHandler) refers to timer.o(i.TimerIntClear) for TimerIntClear
    interrupt_api.o(i.Timer2BIntHandler) refers to timer.o(i.TimerLoadSet) for TimerLoadSet
    interrupt_api.o(i.Timer2BIntHandler) refers to timer.o(i.TimerEnable) for TimerEnable
    interrupt_api.o(i.Timer3AIntHandler) refers to timer.o(i.TimerIntStatus) for TimerIntStatus
    interrupt_api.o(i.Timer3AIntHandler) refers to timer.o(i.TimerIntClear) for TimerIntClear
    interrupt_api.o(i.Timer3AIntHandler) refers to timer.o(i.TimerLoadSet) for TimerLoadSet
    interrupt_api.o(i.Timer3AIntHandler) refers to timer.o(i.TimerEnable) for TimerEnable
    interrupt_api.o(i.Timer3AIntHandler) refers to interrupt_api.o(i.DZPLS_Interrupt_Pr) for DZPLS_Interrupt_Pr
    interrupt_api.o(i.Timer3AIntHandler) refers to vari.o(.data) for PLSHC_MODE
    interrupt_api.o(i.Timer3BIntHandler) refers to timer.o(i.TimerIntStatus) for TimerIntStatus
    interrupt_api.o(i.Timer3BIntHandler) refers to timer.o(i.TimerIntClear) for TimerIntClear
    interrupt_api.o(i.Timer3BIntHandler) refers to timer.o(i.TimerLoadSet) for TimerLoadSet
    interrupt_api.o(i.Timer3BIntHandler) refers to timer.o(i.TimerEnable) for TimerEnable
    interrupt_api.o(i.Timer3BIntHandler) refers to interrupt_api.o(i.DZPLS_Interrupt_Pr) for DZPLS_Interrupt_Pr
    interrupt_api.o(i.Timer3BIntHandler) refers to vari.o(.data) for PLSHC_MODE
    interrupt_api.o(i.Timer4AIntHandler) refers to timer.o(i.TimerIntStatus) for TimerIntStatus
    interrupt_api.o(i.Timer4AIntHandler) refers to timer.o(i.TimerIntClear) for TimerIntClear
    interrupt_api.o(i.Timer4AIntHandler) refers to timer.o(i.TimerLoadSet) for TimerLoadSet
    interrupt_api.o(i.Timer4AIntHandler) refers to timer.o(i.TimerEnable) for TimerEnable
    interrupt_api.o(i.Timer4AIntHandler) refers to interrupt_api.o(i.DZPLS_Interrupt_Pr) for DZPLS_Interrupt_Pr
    interrupt_api.o(i.Timer4AIntHandler) refers to vari.o(.data) for PLSHC_MODE
    interrupt_api.o(i.Timer4BIntHandler) refers to timer.o(i.TimerIntStatus) for TimerIntStatus
    interrupt_api.o(i.Timer4BIntHandler) refers to timer.o(i.TimerIntClear) for TimerIntClear
    interrupt_api.o(i.Timer4BIntHandler) refers to timer.o(i.TimerLoadSet) for TimerLoadSet
    interrupt_api.o(i.Timer4BIntHandler) refers to timer.o(i.TimerEnable) for TimerEnable
    interrupt_api.o(i.Timer4BIntHandler) refers to interrupt_api.o(i.DZPLS_Interrupt_Pr) for DZPLS_Interrupt_Pr
    interrupt_api.o(i.Timer4BIntHandler) refers to interrupt_api.o(i.SZPLS_Interrupt_Pr) for SZPLS_Interrupt_Pr
    interrupt_api.o(i.Timer4BIntHandler) refers to vari.o(.data) for MTYPE
    interrupt_api.o(i.Timer5AIntHandler) refers to timer.o(i.TimerIntStatus) for TimerIntStatus
    interrupt_api.o(i.Timer5AIntHandler) refers to timer.o(i.TimerIntClear) for TimerIntClear
    interrupt_api.o(i.Timer5AIntHandler) refers to timer.o(i.TimerLoadSet) for TimerLoadSet
    interrupt_api.o(i.Timer5AIntHandler) refers to timer.o(i.TimerEnable) for TimerEnable
    interrupt_api.o(i.Timer5AIntHandler) refers to interrupt_api.o(i.SZPLS_Interrupt_Pr) for SZPLS_Interrupt_Pr
    interrupt_api.o(i.Timer5AIntHandler) refers to interrupt_api.o(i.DZPLS_Interrupt_Pr) for DZPLS_Interrupt_Pr
    interrupt_api.o(i.Timer5AIntHandler) refers to vari.o(.data) for MTYPE
    interrupt_api.o(i.UART0IntHandler) refers to uart.o(i.UARTIntStatus) for UARTIntStatus
    interrupt_api.o(i.UART0IntHandler) refers to uart.o(i.UARTIntClear) for UARTIntClear
    interrupt_api.o(i.UART0IntHandler) refers to uart.o(i.UARTCharPut) for UARTCharPut
    interrupt_api.o(i.UART0IntHandler) refers to uart.o(i.UARTCharGet) for UARTCharGet
    interrupt_api.o(i.UART0IntHandler) refers to uart.o(i.UARTCharsAvail) for UARTCharsAvail
    interrupt_api.o(i.UART0IntHandler) refers to vari.o(.data) for Com_Tx_Sts
    interrupt_api.o(i.UART0IntHandler) refers to bitvari.o(.data) for TX_ZS_BIT
    interrupt_api.o(i.UART0IntHandler) refers to vari.o(.bss) for Com_OTail
    interrupt_api.o(i.UART1IntHandler) refers to uart.o(i.UARTIntStatus) for UARTIntStatus
    interrupt_api.o(i.UART1IntHandler) refers to uart.o(i.UARTIntClear) for UARTIntClear
    interrupt_api.o(i.UART1IntHandler) refers to uart.o(i.UARTCharPut) for UARTCharPut
    interrupt_api.o(i.UART1IntHandler) refers to uart.o(i.UARTCharGet) for UARTCharGet
    interrupt_api.o(i.UART1IntHandler) refers to uart.o(i.UARTCharsAvail) for UARTCharsAvail
    interrupt_api.o(i.UART1IntHandler) refers to vari.o(.data) for Com_Tx_Sts
    interrupt_api.o(i.UART1IntHandler) refers to bitvari.o(.data) for TX_ZS_BIT
    interrupt_api.o(i.UART1IntHandler) refers to vari.o(.bss) for Com_OTail
    interrupt_api.o(i.UART3IntHandler) refers to uart.o(i.UARTIntStatus) for UARTIntStatus
    interrupt_api.o(i.UART3IntHandler) refers to uart.o(i.UARTIntClear) for UARTIntClear
    interrupt_api.o(i.UART3IntHandler) refers to uart.o(i.UARTCharPut) for UARTCharPut
    interrupt_api.o(i.UART3IntHandler) refers to uart.o(i.UARTCharGet) for UARTCharGet
    interrupt_api.o(i.UART3IntHandler) refers to uart.o(i.UARTCharsAvail) for UARTCharsAvail
    interrupt_api.o(i.UART3IntHandler) refers to vari.o(.data) for Com_Tx_Sts
    interrupt_api.o(i.UART3IntHandler) refers to bitvari.o(.data) for TX_ZS_BIT
    interrupt_api.o(i.UART3IntHandler) refers to vari.o(.bss) for Com_OTail
    interrupt_api.o(i.UART5IntHandler) refers to uart.o(i.UARTIntStatus) for UARTIntStatus
    interrupt_api.o(i.UART5IntHandler) refers to uart.o(i.UARTIntClear) for UARTIntClear
    interrupt_api.o(i.UART5IntHandler) refers to uart.o(i.UARTCharPut) for UARTCharPut
    interrupt_api.o(i.UART5IntHandler) refers to uart.o(i.UARTCharGet) for UARTCharGet
    interrupt_api.o(i.UART5IntHandler) refers to uart.o(i.UARTCharsAvail) for UARTCharsAvail
    interrupt_api.o(i.UART5IntHandler) refers to vari.o(.data) for Com_Tx_Sts
    interrupt_api.o(i.UART5IntHandler) refers to bitvari.o(.data) for TX_ZS_BIT
    interrupt_api.o(i.UART5IntHandler) refers to vari.o(.bss) for Com_OTail
    interrupt_api.o(i.UART6IntHandler) refers to uart.o(i.UARTIntStatus) for UARTIntStatus
    interrupt_api.o(i.UART6IntHandler) refers to uart.o(i.UARTIntClear) for UARTIntClear
    interrupt_api.o(i.UART6IntHandler) refers to uart.o(i.UARTCharPut) for UARTCharPut
    interrupt_api.o(i.UART6IntHandler) refers to uart.o(i.UARTCharGet) for UARTCharGet
    interrupt_api.o(i.UART6IntHandler) refers to uart.o(i.UARTCharsAvail) for UARTCharsAvail
    interrupt_api.o(i.UART6IntHandler) refers to vari.o(.data) for Com_Tx_Sts
    interrupt_api.o(i.UART6IntHandler) refers to bitvari.o(.data) for TX_ZS_BIT
    interrupt_api.o(i.UART6IntHandler) refers to vari.o(.bss) for Com_OTail
    interrupt_api.o(i.WatchDogHandler) refers to watchdog.o(i.WatchdogIntClear) for WatchdogIntClear
    main.o(i.main) refers to sysctl.o(.emb_text) for SysCtlDelay
    main.o(i.main) refers to interrupt.o(i.IntMasterDisable) for IntMasterDisable
    main.o(i.main) refers to init.o(i.Init_Pll) for Init_Pll
    main.o(i.main) refers to init.o(i.Init_Gpio) for Init_Gpio
    main.o(i.main) refers to init.o(i.Init_SysTick) for Init_SysTick
    main.o(i.main) refers to init.o(i.Init_Ssi) for Init_Ssi
    main.o(i.main) refers to init.o(i.Init_Uart) for Init_Uart
    main.o(i.main) refers to init.o(i.Init_Timer) for Init_Timer
    main.o(i.main) refers to init.o(i.Init_Ram) for Init_Ram
    main.o(i.main) refers to init.o(i.Init_CAN0) for Init_CAN0
    main.o(i.main) refers to init.o(i.Init_CAN1) for Init_CAN1
    main.o(i.main) refers to init.o(i.Init_Wdt) for Init_Wdt
    main.o(i.main) refers to init.o(i.Init_Int) for Init_Int
    main.o(i.main) refers to interrupt.o(i.IntMasterEnable) for IntMasterEnable
    main.o(i.main) refers to usr_lib.o(i.WDTFeed) for WDTFeed
    main.o(i.main) refers to clk_err.o(i.Ext_WDTFeed) for Ext_WDTFeed
    uart_api.o(i.BOOT_INT_DIS) refers to interrupt.o(i.IntMasterDisable) for IntMasterDisable
    uart_api.o(i.BOOT_INT_DIS) refers to interrupt.o(i.IntDisable) for IntDisable
    uart_api.o(i.Proc_Com_IBuf) refers to uart_api.o(i.BOOT_INT_DIS) for BOOT_INT_DIS
    uart_api.o(i.Proc_Com_IBuf) refers to can_api.o(i.SLV_REQ_TX) for SLV_REQ_TX
    uart_api.o(i.Proc_Com_IBuf) refers to can_api.o(i.CAN_LDATA_TX_Pr) for CAN_LDATA_TX_Pr
    uart_api.o(i.Proc_Com_IBuf) refers to vari.o(.data) for Com_Rx_Sts
    uart_api.o(i.Proc_Com_IBuf) refers to vari.o(.bss) for Com_IHead
    uart_api.o(i.Proc_Com_IBuf) refers to can_api.o(.constdata) for CAN_LMSG_TX_TAB
    uart_api.o(i.Proc_Com_IBuf) refers to init.o(.constdata) for CAN_MSG_SET_TAB
    uart_api.o(i.Proc_Com_OBuf) refers to uart.o(i.UARTBusy) for UARTBusy
    uart_api.o(i.Proc_Com_OBuf) refers to uart.o(i.UARTIntDisable) for UARTIntDisable
    uart_api.o(i.Proc_Com_OBuf) refers to uart.o(i.UARTCharPut) for UARTCharPut
    uart_api.o(i.Proc_Com_OBuf) refers to uart.o(i.UARTIntEnable) for UARTIntEnable
    uart_api.o(i.Proc_Com_OBuf) refers to vari.o(.data) for Com_Tx_Sts
    uart_api.o(i.Proc_Com_OBuf) refers to uart_api.o(.constdata) for UART_PORT
    uart_api.o(i.Proc_Com_OBuf) refers to vari.o(.bss) for Com0_OBuf
    uart_api.o(i.Proc_Com_Rx_OvTm) refers to vari.o(.data) for Com_Rx_Sts
    uart_api.o(i.Proc_Com_Rx_OvTm) refers to vari.o(.bss) for Com_IHead
    eng_err.o(i.BEEP_EN_Pr) refers to vari.o(.data) for CAN_MSG_IPtr
    eng_err.o(i.BEEP_EN_Pr) refers to bitvari.o(.data) for BEEP_EN
    eng_err.o(i.CATCH_HB_MODE_Pr) refers to eng_err.o(i.ENG_PLS_IN_Pr) for ENG_PLS_IN_Pr
    eng_err.o(i.CATCH_HB_MODE_Pr) refers to eng_err.o(i.Uin_Iin_Pr) for Uin_Iin_Pr
    eng_err.o(i.CATCH_HB_MODE_Pr) refers to memseta.o(.text) for __aeabi_memset
    eng_err.o(i.CATCH_HB_MODE_Pr) refers to disp.o(i.Update_Mtr_Num) for Update_Mtr_Num
    eng_err.o(i.CATCH_HB_MODE_Pr) refers to eng_err.o(i.Send_Data) for Send_Data
    eng_err.o(i.CATCH_HB_MODE_Pr) refers to eng_err.o(i.UJDQ_Open_ESwitch_Open) for UJDQ_Open_ESwitch_Open
    eng_err.o(i.CATCH_HB_MODE_Pr) refers to bitvari.o(.data) for NEW_CMD
    eng_err.o(i.CATCH_HB_MODE_Pr) refers to vari.o(.data) for WORK_Timer
    eng_err.o(i.CATCH_HB_Pr) refers to gpio.o(i.GPIOPinWrite) for GPIOPinWrite
    eng_err.o(i.CATCH_HB_Pr) refers to bitvari.o(.data) for MTR_PLUG
    eng_err.o(i.CATCH_HB_Pr) refers to vari.o(.data) for Mtr_Numb_ID
    eng_err.o(i.CYCLE_PLS_SEL_Pr) refers to vari.o(.data) for CAN_MSG_IPtr
    eng_err.o(i.CYCLE_PLS_SEL_Pr) refers to bitvari.o(.data) for NEW_CMD
    eng_err.o(i.Cal_Gp_Relaod) refers to vari.o(.data) for GP_CLK_SET
    eng_err.o(i.Cal_STD_ENG_CNT_VAL) refers to ffltui.o(.text) for __aeabi_ui2f
    eng_err.o(i.Cal_STD_ENG_CNT_VAL) refers to fmul.o(.text) for __aeabi_fmul
    eng_err.o(i.Cal_STD_ENG_CNT_VAL) refers to fdiv.o(.text) for __aeabi_fdiv
    eng_err.o(i.Cal_STD_ENG_CNT_VAL) refers to f2d.o(.text) for __aeabi_f2d
    eng_err.o(i.Cal_STD_ENG_CNT_VAL) refers to dadd.o(.text) for __aeabi_dadd
    eng_err.o(i.Cal_STD_ENG_CNT_VAL) refers to dfixui.o(.text) for __aeabi_d2uiz
    eng_err.o(i.Cal_STD_ENG_CNT_VAL) refers to disp.o(i.Update_N_Buf) for Update_N_Buf
    eng_err.o(i.Cal_STD_ENG_CNT_VAL) refers to vari.o(.data) for MTR_ENG_CST
    eng_err.o(i.Cal_STD_ENG_CNT_VAL) refers to bitvari.o(.data) for FIRST_ENG_PLS
    eng_err.o(i.Check_Std_Eclk) refers to timer.o(i.TimerDisable) for TimerDisable
    eng_err.o(i.Check_Std_Eclk) refers to timer.o(i.TimerIntClear) for TimerIntClear
    eng_err.o(i.Check_Std_Eclk) refers to timer.o(i.TimerLoadSet) for TimerLoadSet
    eng_err.o(i.Check_Std_Eclk) refers to timer.o(i.TimerEnable) for TimerEnable
    eng_err.o(i.Check_Std_Eclk) refers to vari.o(.data) for Timer_1ms
    eng_err.o(i.Check_Std_Eclk) refers to bitvari.o(.data) for NO_STD_ENG
    eng_err.o(i.Chg_U_In_Pr) refers to bitvari.o(.data) for MTR_PLUG
    eng_err.o(i.Chg_U_In_Pr) refers to vari.o(.data) for WORK_MODE
    eng_err.o(i.Cnt_ENG_Pr) refers to f2d.o(.text) for __aeabi_f2d
    eng_err.o(i.Cnt_ENG_Pr) refers to printfa.o(i.__0sprintf) for __2sprintf
    eng_err.o(i.Cnt_ENG_Pr) refers to init.o(i.Fill_Space_StrCpy) for Fill_Space_StrCpy
    eng_err.o(i.Cnt_ENG_Pr) refers to eng_err.o(i.Send_Data) for Send_Data
    eng_err.o(i.Cnt_ENG_Pr) refers to disp.o(i.Copy_Str_To_DSBUF) for Copy_Str_To_DSBUF
    eng_err.o(i.Cnt_ENG_Pr) refers to eng_err.o(i.UJDQ_Open_ESwitch_Open) for UJDQ_Open_ESwitch_Open
    eng_err.o(i.Cnt_ENG_Pr) refers to bitvari.o(.data) for MTR_PLUG
    eng_err.o(i.Cnt_ENG_Pr) refers to vari.o(.data) for CAN_MSG_IPtr
    eng_err.o(i.Cnt_ENG_Pr) refers to vari.o(.bss) for TEMP_STR
    eng_err.o(i.DIVIDE_COEF_Pr) refers to timer.o(i.TimerDisable) for TimerDisable
    eng_err.o(i.DIVIDE_COEF_Pr) refers to timer.o(i.TimerLoadSet) for TimerLoadSet
    eng_err.o(i.DIVIDE_COEF_Pr) refers to timer.o(i.TimerMatchSet) for TimerMatchSet
    eng_err.o(i.DIVIDE_COEF_Pr) refers to timer.o(i.TimerEnable) for TimerEnable
    eng_err.o(i.DIVIDE_COEF_Pr) refers to eng_err.o(i.Cal_STD_ENG_CNT_VAL) for Cal_STD_ENG_CNT_VAL
    eng_err.o(i.DIVIDE_COEF_Pr) refers to fmul.o(.text) for __aeabi_fmul
    eng_err.o(i.DIVIDE_COEF_Pr) refers to ffltui.o(.text) for __aeabi_ui2f
    eng_err.o(i.DIVIDE_COEF_Pr) refers to fdiv.o(.text) for __aeabi_fdiv
    eng_err.o(i.DIVIDE_COEF_Pr) refers to f2d.o(.text) for __aeabi_f2d
    eng_err.o(i.DIVIDE_COEF_Pr) refers to dadd.o(.text) for __aeabi_dadd
    eng_err.o(i.DIVIDE_COEF_Pr) refers to d2f.o(.text) for __aeabi_d2f
    eng_err.o(i.DIVIDE_COEF_Pr) refers to ffixui.o(.text) for __aeabi_f2uiz
    eng_err.o(i.DIVIDE_COEF_Pr) refers to printfa.o(i.__0sprintf) for __2sprintf
    eng_err.o(i.DIVIDE_COEF_Pr) refers to init.o(i.Fill_Space_StrCpy) for Fill_Space_StrCpy
    eng_err.o(i.DIVIDE_COEF_Pr) refers to vari.o(.data) for CAN_MSG_IPtr
    eng_err.o(i.DIVIDE_COEF_Pr) refers to bitvari.o(.data) for FIRST_ENG_PLS
    eng_err.o(i.DIVIDE_COEF_Pr) refers to vari.o(.bss) for TEMP_STR
    eng_err.o(i.ELEC_HEAD_RESET_Pr) refers to gpio.o(i.GPIOPinWrite) for GPIOPinWrite
    eng_err.o(i.ELEC_HEAD_RESET_Pr) refers to eng_err.o(i.ERR_CLR_Pr) for ERR_CLR_Pr
    eng_err.o(i.ELEC_HEAD_RESET_Pr) refers to bitvari.o(.data) for MTR_PLUG
    eng_err.o(i.ELEC_HEAD_RESET_Pr) refers to vari.o(.data) for Timer_8ms
    eng_err.o(i.ELEC_PLS_TYPE_Pr) refers to gpio.o(i.GPIOPinWrite) for GPIOPinWrite
    eng_err.o(i.ELEC_PLS_TYPE_Pr) refers to vari.o(.data) for CAN_MSG_IPtr
    eng_err.o(i.ELSC_PLS_IN_DEN) refers to timer.o(i.TimerDisable) for TimerDisable
    eng_err.o(i.ELSC_PLS_IN_DEN) refers to timer.o(i.TimerIntClear) for TimerIntClear
    eng_err.o(i.ELSC_PLS_IN_DEN) refers to gpio.o(i.GPIOPinTypeTimer) for GPIOPinTypeTimer
    eng_err.o(i.ELSC_PLS_IN_DEN) refers to timer.o(i.TimerControlEvent) for TimerControlEvent
    eng_err.o(i.ELSC_PLS_IN_DEN) refers to timer.o(i.TimerLoadSet) for TimerLoadSet
    eng_err.o(i.ELSC_PLS_IN_DEN) refers to timer.o(i.TimerMatchSet) for TimerMatchSet
    eng_err.o(i.ELSC_PLS_IN_DEN) refers to timer.o(i.TimerIntEnable) for TimerIntEnable
    eng_err.o(i.ELSC_PLS_IN_DEN) refers to timer.o(i.TimerEnable) for TimerEnable
    eng_err.o(i.ELSC_PLS_IN_DEN) refers to vari.o(.data) for MTYPE
    eng_err.o(i.ELSC_PLS_IN_DEN) refers to eng_err.o(.constdata) for CYCLE_PIN_TAB
    eng_err.o(i.ELSC_PLS_IN_DEN) refers to bitvari.o(.data) for HB_CATCHED
    eng_err.o(i.ENG_CLR_Pr) refers to f2d.o(.text) for __aeabi_f2d
    eng_err.o(i.ENG_CLR_Pr) refers to printfa.o(i.__0sprintf) for __2sprintf
    eng_err.o(i.ENG_CLR_Pr) refers to init.o(i.Fill_Space_StrCpy) for Fill_Space_StrCpy
    eng_err.o(i.ENG_CLR_Pr) refers to disp.o(i.Copy_Str_To_DSBUF) for Copy_Str_To_DSBUF
    eng_err.o(i.ENG_CLR_Pr) refers to memseta.o(.text) for __aeabi_memset
    eng_err.o(i.ENG_CLR_Pr) refers to bitvari.o(.data) for MTR_PLUG
    eng_err.o(i.ENG_CLR_Pr) refers to vari.o(.data) for WORK_MODE
    eng_err.o(i.ENG_CLR_Pr) refers to vari.o(.bss) for TEMP_STR
    eng_err.o(i.ENG_ERR_MODE_Pr) refers to eng_err.o(i.Init_DEVICE_IO) for Init_DEVICE_IO
    eng_err.o(i.ENG_ERR_MODE_Pr) refers to eng_err.o(i.ReStart_Mea_Err) for ReStart_Mea_Err
    eng_err.o(i.ENG_ERR_MODE_Pr) refers to eng_err.o(i.Uin_Iin_Pr) for Uin_Iin_Pr
    eng_err.o(i.ENG_ERR_MODE_Pr) refers to ffltui.o(.text) for __aeabi_ui2f
    eng_err.o(i.ENG_ERR_MODE_Pr) refers to fadd.o(.text) for __aeabi_frsub
    eng_err.o(i.ENG_ERR_MODE_Pr) refers to fmul.o(.text) for __aeabi_fmul
    eng_err.o(i.ENG_ERR_MODE_Pr) refers to fdiv.o(.text) for __aeabi_fdiv
    eng_err.o(i.ENG_ERR_MODE_Pr) refers to cfrcmple.o(.text) for __aeabi_cfrcmple
    eng_err.o(i.ENG_ERR_MODE_Pr) refers to f2d.o(.text) for __aeabi_f2d
    eng_err.o(i.ENG_ERR_MODE_Pr) refers to printfa.o(i.__0sprintf) for __2sprintf
    eng_err.o(i.ENG_ERR_MODE_Pr) refers to init.o(i.Fill_Space_StrCpy) for Fill_Space_StrCpy
    eng_err.o(i.ENG_ERR_MODE_Pr) refers to eng_err.o(i.Send_Data) for Send_Data
    eng_err.o(i.ENG_ERR_MODE_Pr) refers to disp.o(i.Copy_Str_To_DSBUF) for Copy_Str_To_DSBUF
    eng_err.o(i.ENG_ERR_MODE_Pr) refers to eng_err.o(i.No_BZENGMC_Pr) for No_BZENGMC_Pr
    eng_err.o(i.ENG_ERR_MODE_Pr) refers to disp.o(i.Update_N_Buf) for Update_N_Buf
    eng_err.o(i.ENG_ERR_MODE_Pr) refers to bitvari.o(.data) for NEW_CMD
    eng_err.o(i.ENG_ERR_MODE_Pr) refers to vari.o(.data) for WORK_Timer
    eng_err.o(i.ENG_ERR_MODE_Pr) refers to vari.o(.bss) for TEMP_STR
    eng_err.o(i.ENG_PLS_IN_Pr) refers to eng_err.o(i.GDT_PLS_IN_DEN) for GDT_PLS_IN_DEN
    eng_err.o(i.ENG_PLS_IN_Pr) refers to eng_err.o(i.ELSC_PLS_IN_DEN) for ELSC_PLS_IN_DEN
    eng_err.o(i.ENG_PLS_IN_Pr) refers to vari.o(.data) for WORK_MODE
    eng_err.o(i.ENG_PLS_IN_Pr) refers to bitvari.o(.data) for FIRST_ENG_PLS
    eng_err.o(i.ERR_CLR_Pr) refers to memseta.o(.text) for __aeabi_memset
    eng_err.o(i.ERR_CLR_Pr) refers to disp.o(i.Update_N_Buf) for Update_N_Buf
    eng_err.o(i.ERR_CLR_Pr) refers to disp.o(i.Update_Mtr_Num) for Update_Mtr_Num
    eng_err.o(i.ERR_CLR_Pr) refers to bitvari.o(.data) for MTR_PLUG
    eng_err.o(i.ERR_CLR_Pr) refers to vari.o(.data) for WORK_MODE
    eng_err.o(i.ESwitch_Control_Pr) refers to gpio.o(i.GPIOPinWrite) for GPIOPinWrite
    eng_err.o(i.ESwitch_Control_Pr) refers to bitvari.o(.data) for SINGLE_OR_THREE
    eng_err.o(i.ESwitch_Control_Pr) refers to eng_err.o(.constdata) for ESwitch_PORT_TAB
    eng_err.o(i.ESwitch_Control_Pr) refers to bitvari.o(.bss) for U_ESwitch
    eng_err.o(i.ESwitch_Control_Pr) refers to vari.o(.data) for Timer_8ms
    eng_err.o(i.GDGZ_MODE_Pr) refers to bitvari.o(.data) for NEW_CMD
    eng_err.o(i.GDT_PLS_IN_DEN) refers to gpio.o(i.GPIOIntDisable) for GPIOIntDisable
    eng_err.o(i.GDT_PLS_IN_DEN) refers to gpio.o(i.GPIOIntClear) for GPIOIntClear
    eng_err.o(i.GDT_PLS_IN_DEN) refers to gpio.o(i.GPIOPinTypeGPIOInput) for GPIOPinTypeGPIOInput
    eng_err.o(i.GDT_PLS_IN_DEN) refers to gpio.o(i.GPIOPadConfigSet) for GPIOPadConfigSet
    eng_err.o(i.GDT_PLS_IN_DEN) refers to gpio.o(i.GPIOIntTypeSet) for GPIOIntTypeSet
    eng_err.o(i.GDT_PLS_IN_DEN) refers to vari.o(.data) for WORK_MODE
    eng_err.o(i.GDT_PLS_IN_DEN) refers to bitvari.o(.data) for HB_CATCHED
    eng_err.o(i.GDT_RST_Pr) refers to gpio.o(i.GPIOPinWrite) for GPIOPinWrite
    eng_err.o(i.GDT_RST_Pr) refers to bitvari.o(.data) for GDT_RST_FLAG
    eng_err.o(i.GDT_RST_Pr) refers to vari.o(.data) for Timer_8ms
    eng_err.o(i.I_In_Out_Pr) refers to gpio.o(i.GPIOPinWrite) for GPIOPinWrite
    eng_err.o(i.I_In_Out_Pr) refers to bitvari.o(.data) for I_JDQ
    eng_err.o(i.I_In_Out_Pr) refers to vari.o(.data) for Timer_8ms
    eng_err.o(i.I_JDQ_Time_Pr) refers to gpio.o(i.GPIOPinWrite) for GPIOPinWrite
    eng_err.o(i.I_JDQ_Time_Pr) refers to bitvari.o(.data) for I_JDQ_CHG
    eng_err.o(i.I_JDQ_Time_Pr) refers to vari.o(.data) for Timer_8ms
    eng_err.o(i.Init_DEVICE_IO) refers to gpio.o(i.GPIOPinTypeGPIOInput) for GPIOPinTypeGPIOInput
    eng_err.o(i.Init_DEVICE_IO) refers to gpio.o(i.GPIOIntDisable) for GPIOIntDisable
    eng_err.o(i.Init_DEVICE_IO) refers to timer.o(i.TimerDisable) for TimerDisable
    eng_err.o(i.Init_DEVICE_IO) refers to gpio.o(i.GPIOIntTypeSet) for GPIOIntTypeSet
    eng_err.o(i.Init_DEVICE_IO) refers to gpio.o(i.GPIOIntClear) for GPIOIntClear
    eng_err.o(i.Init_DEVICE_IO) refers to eng_err.o(i.MFuction_Clk_Cfg) for MFuction_Clk_Cfg
    eng_err.o(i.Init_DEVICE_IO) refers to eng_err.o(i.ENG_PLS_IN_Pr) for ENG_PLS_IN_Pr
    eng_err.o(i.Init_DEVICE_IO) refers to vari.o(.data) for WORK_MODE
    eng_err.o(i.Init_DEVICE_IO) refers to eng_err.o(.constdata) for IO_Timer_Tab
    eng_err.o(i.Init_DEVICE_IO) refers to bitvari.o(.data) for RISE_FALL_LVL
    eng_err.o(i.JTAG_EN_Pr) refers to sysctl.o(i.SysCtlPeripheralEnable) for SysCtlPeripheralEnable
    eng_err.o(i.JTAG_EN_Pr) refers to gpio.o(i.GPIODirModeSet) for GPIODirModeSet
    eng_err.o(i.JTAG_EN_Pr) refers to gpio.o(i.GPIOPadConfigSet) for GPIOPadConfigSet
    eng_err.o(i.LED_TST) refers to memseta.o(.text) for __aeabi_memset
    eng_err.o(i.LED_TST) refers to vari.o(.data) for Disp_Buf
    eng_err.o(i.Login_Sy_Sts) refers to bitvari.o(.data) for MTR_PLUG
    eng_err.o(i.Login_Sy_Sts) refers to vari.o(.data) for WORK_MODE
    eng_err.o(i.Login_Verify_Sts) refers to disp.o(i.Disp_Long_Data) for Disp_Long_Data
    eng_err.o(i.Login_Verify_Sts) refers to bitvari.o(.data) for MTR_PLUG
    eng_err.o(i.Login_Verify_Sts) refers to vari.o(.data) for WORK_MODE
    eng_err.o(i.MEASURE_ENG_MODE_Pr) refers to eng_err.o(i.Uin_Iin_Pr) for Uin_Iin_Pr
    eng_err.o(i.MEASURE_ENG_MODE_Pr) refers to ffltui.o(.text) for __aeabi_ui2f
    eng_err.o(i.MEASURE_ENG_MODE_Pr) refers to fdiv.o(.text) for __aeabi_fdiv
    eng_err.o(i.MEASURE_ENG_MODE_Pr) refers to fmul.o(.text) for __aeabi_fmul
    eng_err.o(i.MEASURE_ENG_MODE_Pr) refers to f2d.o(.text) for __aeabi_f2d
    eng_err.o(i.MEASURE_ENG_MODE_Pr) refers to printfa.o(i.__0sprintf) for __2sprintf
    eng_err.o(i.MEASURE_ENG_MODE_Pr) refers to init.o(i.Fill_Space_StrCpy) for Fill_Space_StrCpy
    eng_err.o(i.MEASURE_ENG_MODE_Pr) refers to disp.o(i.Copy_Str_To_DSBUF) for Copy_Str_To_DSBUF
    eng_err.o(i.MEASURE_ENG_MODE_Pr) refers to eng_err.o(i.Send_Data) for Send_Data
    eng_err.o(i.MEASURE_ENG_MODE_Pr) refers to bitvari.o(.data) for NEW_CMD
    eng_err.o(i.MEASURE_ENG_MODE_Pr) refers to vari.o(.data) for WORK_Timer
    eng_err.o(i.MEASURE_ENG_MODE_Pr) refers to vari.o(.bss) for TEMP_STR
    eng_err.o(i.MEA_CST_MODE_Pr) refers to eng_err.o(i.ENG_PLS_IN_Pr) for ENG_PLS_IN_Pr
    eng_err.o(i.MEA_CST_MODE_Pr) refers to eng_err.o(i.Uin_Iin_Pr) for Uin_Iin_Pr
    eng_err.o(i.MEA_CST_MODE_Pr) refers to memseta.o(.text) for __aeabi_memset
    eng_err.o(i.MEA_CST_MODE_Pr) refers to disp.o(i.Update_Mtr_Num) for Update_Mtr_Num
    eng_err.o(i.MEA_CST_MODE_Pr) refers to printfa.o(i.__0sprintf) for __2sprintf
    eng_err.o(i.MEA_CST_MODE_Pr) refers to init.o(i.Fill_Space_StrCpy) for Fill_Space_StrCpy
    eng_err.o(i.MEA_CST_MODE_Pr) refers to disp.o(i.Copy_Str_To_DSBUF) for Copy_Str_To_DSBUF
    eng_err.o(i.MEA_CST_MODE_Pr) refers to eng_err.o(i.Send_Data) for Send_Data
    eng_err.o(i.MEA_CST_MODE_Pr) refers to bitvari.o(.data) for NEW_CMD
    eng_err.o(i.MEA_CST_MODE_Pr) refers to vari.o(.data) for WORK_Timer
    eng_err.o(i.MEA_CST_MODE_Pr) refers to vari.o(.bss) for TEMP_STR
    eng_err.o(i.MEA_ENG_DUTY_MODE_Pr) refers to eng_err.o(i.Uin_Iin_Pr) for Uin_Iin_Pr
    eng_err.o(i.MEA_ENG_DUTY_MODE_Pr) refers to memseta.o(.text) for __aeabi_memset
    eng_err.o(i.MEA_ENG_DUTY_MODE_Pr) refers to disp.o(i.Update_N_Buf) for Update_N_Buf
    eng_err.o(i.MEA_ENG_DUTY_MODE_Pr) refers to disp.o(i.Update_Mtr_Num) for Update_Mtr_Num
    eng_err.o(i.MEA_ENG_DUTY_MODE_Pr) refers to eng_err.o(i.Init_DEVICE_IO) for Init_DEVICE_IO
    eng_err.o(i.MEA_ENG_DUTY_MODE_Pr) refers to printfa.o(i.__0sprintf) for __2sprintf
    eng_err.o(i.MEA_ENG_DUTY_MODE_Pr) refers to init.o(i.Fill_Space_StrCpy) for Fill_Space_StrCpy
    eng_err.o(i.MEA_ENG_DUTY_MODE_Pr) refers to eng_err.o(i.Send_Data) for Send_Data
    eng_err.o(i.MEA_ENG_DUTY_MODE_Pr) refers to disp.o(i.Copy_Str_To_DSBUF) for Copy_Str_To_DSBUF
    eng_err.o(i.MEA_ENG_DUTY_MODE_Pr) refers to bitvari.o(.data) for NEW_CMD
    eng_err.o(i.MEA_ENG_DUTY_MODE_Pr) refers to vari.o(.data) for WORK_Timer
    eng_err.o(i.MEA_ENG_DUTY_MODE_Pr) refers to vari.o(.bss) for HIGH_LVL_TIME
    eng_err.o(i.MEA_MTR_CST_Pr) refers to bitvari.o(.data) for MTR_PLUG
    eng_err.o(i.MEA_MTR_CST_Pr) refers to vari.o(.data) for WORK_MODE
    eng_err.o(i.MEA_PLS_CYCLE_Pr) refers to bitvari.o(.data) for MTR_PLUG
    eng_err.o(i.MEA_PLS_CYCLE_Pr) refers to vari.o(.data) for WORK_MODE
    eng_err.o(i.MEA_POWER_D_MODE_Pr) refers to gpio.o(i.GPIOPinWrite) for GPIOPinWrite
    eng_err.o(i.MEA_POWER_D_MODE_Pr) refers to eng_err.o(i.ESwitch_Control_Pr) for ESwitch_Control_Pr
    eng_err.o(i.MEA_POWER_D_MODE_Pr) refers to eng_err.o(i.UJDQ_Control_Pr) for UJDQ_Control_Pr
    eng_err.o(i.MEA_POWER_D_MODE_Pr) refers to bitvari.o(.data) for NEW_CMD
    eng_err.o(i.MEA_POWER_D_MODE_Pr) refers to vari.o(.data) for WORK_Timer
    eng_err.o(i.MFuction_Clk_Cfg) refers to timer.o(i.TimerDisable) for TimerDisable
    eng_err.o(i.MFuction_Clk_Cfg) refers to timer.o(i.TimerIntClear) for TimerIntClear
    eng_err.o(i.MFuction_Clk_Cfg) refers to gpio.o(i.GPIOIntClear) for GPIOIntClear
    eng_err.o(i.MFuction_Clk_Cfg) refers to gpio.o(i.GPIOIntDisable) for GPIOIntDisable
    eng_err.o(i.MFuction_Clk_Cfg) refers to gpio.o(i.GPIOPinTypeTimer) for GPIOPinTypeTimer
    eng_err.o(i.MFuction_Clk_Cfg) refers to timer.o(i.TimerLoadSet) for TimerLoadSet
    eng_err.o(i.MFuction_Clk_Cfg) refers to timer.o(i.TimerMatchSet) for TimerMatchSet
    eng_err.o(i.MFuction_Clk_Cfg) refers to timer.o(i.TimerIntEnable) for TimerIntEnable
    eng_err.o(i.MFuction_Clk_Cfg) refers to timer.o(i.TimerEnable) for TimerEnable
    eng_err.o(i.MFuction_Clk_Cfg) refers to gpio.o(i.GPIOPinTypeGPIOInput) for GPIOPinTypeGPIOInput
    eng_err.o(i.MFuction_Clk_Cfg) refers to gpio.o(i.GPIOIntTypeSet) for GPIOIntTypeSet
    eng_err.o(i.MFuction_Clk_Cfg) refers to vari.o(.data) for MTYPE
    eng_err.o(i.MFuction_Clk_Cfg) refers to eng_err.o(.constdata) for CYCLE_PIN_TAB
    eng_err.o(i.MFuction_Clk_Cfg) refers to bitvari.o(.data) for SZ_INT_REEN
    eng_err.o(i.MTR_PLUG_MODE_Pr) refers to gpio.o(i.GPIOPinWrite) for GPIOPinWrite
    eng_err.o(i.MTR_PLUG_MODE_Pr) refers to eng_err.o(i.Send_Data) for Send_Data
    eng_err.o(i.MTR_PLUG_MODE_Pr) refers to eng_err.o(i.I_In_Out_Pr) for I_In_Out_Pr
    eng_err.o(i.MTR_PLUG_MODE_Pr) refers to eng_err.o(i.ESwitch_Control_Pr) for ESwitch_Control_Pr
    eng_err.o(i.MTR_PLUG_MODE_Pr) refers to eng_err.o(i.UJDQ_Control_Pr) for UJDQ_Control_Pr
    eng_err.o(i.MTR_PLUG_MODE_Pr) refers to memseta.o(.text) for __aeabi_memset
    eng_err.o(i.MTR_PLUG_MODE_Pr) refers to bitvari.o(.data) for NEW_CMD
    eng_err.o(i.MTR_PLUG_MODE_Pr) refers to vari.o(.data) for WORK_MODE
    eng_err.o(i.MTR_PLUG_Pr) refers to vari.o(.data) for CAN_MSG_IPtr
    eng_err.o(i.MTR_PLUG_Pr) refers to bitvari.o(.data) for MTR_PLUG
    eng_err.o(i.NYSY_MODE_Pr) refers to eng_err.o(i.Send_Data) for Send_Data
    eng_err.o(i.NYSY_MODE_Pr) refers to bitvari.o(.data) for NEW_ENG_PLS
    eng_err.o(i.NYSY_MODE_Pr) refers to vari.o(.data) for CURRENT_N
    eng_err.o(i.No_BZENGMC_Pr) refers to memseta.o(.text) for __aeabi_memset
    eng_err.o(i.No_BZENGMC_Pr) refers to vari.o(.data) for Disp_Choose
    eng_err.o(i.No_BZENGMC_Pr) refers to bitvari.o(.data) for GZ_FLAG
    eng_err.o(i.PANZHUAN_ERR_MODE_Pr) refers to eng_err.o(i.ENG_PLS_IN_Pr) for ENG_PLS_IN_Pr
    eng_err.o(i.PANZHUAN_ERR_MODE_Pr) refers to eng_err.o(i.Uin_Iin_Pr) for Uin_Iin_Pr
    eng_err.o(i.PANZHUAN_ERR_MODE_Pr) refers to memseta.o(.text) for __aeabi_memset
    eng_err.o(i.PANZHUAN_ERR_MODE_Pr) refers to disp.o(i.Update_N_Buf) for Update_N_Buf
    eng_err.o(i.PANZHUAN_ERR_MODE_Pr) refers to disp.o(i.Update_Mtr_Num) for Update_Mtr_Num
    eng_err.o(i.PANZHUAN_ERR_MODE_Pr) refers to eng_err.o(i.Send_Data) for Send_Data
    eng_err.o(i.PANZHUAN_ERR_MODE_Pr) refers to bitvari.o(.data) for NEW_CMD
    eng_err.o(i.PANZHUAN_ERR_MODE_Pr) refers to vari.o(.data) for WORK_Timer
    eng_err.o(i.PLS_SEL_Pr) refers to eng_err.o(i.ENG_PLS_IN_Pr) for ENG_PLS_IN_Pr
    eng_err.o(i.PLS_SEL_Pr) refers to vari.o(.data) for CAN_MSG_IPtr
    eng_err.o(i.PLS_ZZ_Pr) refers to bitvari.o(.data) for MTR_PLUG
    eng_err.o(i.PLS_ZZ_Pr) refers to vari.o(.data) for WORK_MODE
    eng_err.o(i.PULSE_ZZ_MODE_Pr) refers to eng_err.o(i.ENG_PLS_IN_Pr) for ENG_PLS_IN_Pr
    eng_err.o(i.PULSE_ZZ_MODE_Pr) refers to eng_err.o(i.Uin_Iin_Pr) for Uin_Iin_Pr
    eng_err.o(i.PULSE_ZZ_MODE_Pr) refers to memseta.o(.text) for __aeabi_memset
    eng_err.o(i.PULSE_ZZ_MODE_Pr) refers to disp.o(i.Update_N_Buf) for Update_N_Buf
    eng_err.o(i.PULSE_ZZ_MODE_Pr) refers to disp.o(i.Update_Mtr_Num) for Update_Mtr_Num
    eng_err.o(i.PULSE_ZZ_MODE_Pr) refers to printfa.o(i.__0sprintf) for __2sprintf
    eng_err.o(i.PULSE_ZZ_MODE_Pr) refers to init.o(i.Fill_Space_StrCpy) for Fill_Space_StrCpy
    eng_err.o(i.PULSE_ZZ_MODE_Pr) refers to eng_err.o(i.Send_Data) for Send_Data
    eng_err.o(i.PULSE_ZZ_MODE_Pr) refers to disp.o(i.Copy_Str_To_DSBUF) for Copy_Str_To_DSBUF
    eng_err.o(i.PULSE_ZZ_MODE_Pr) refers to eng_err.o(i.UJDQ_Open_ESwitch_Open) for UJDQ_Open_ESwitch_Open
    eng_err.o(i.PULSE_ZZ_MODE_Pr) refers to bitvari.o(.data) for NEW_CMD
    eng_err.o(i.PULSE_ZZ_MODE_Pr) refers to vari.o(.data) for WORK_Timer
    eng_err.o(i.PULSE_ZZ_MODE_Pr) refers to vari.o(.bss) for TEMP_STR
    eng_err.o(i.PZ_ERR_Pr) refers to bitvari.o(.data) for MTR_PLUG
    eng_err.o(i.PZ_ERR_Pr) refers to vari.o(.data) for WORK_MODE
    eng_err.o(i.Power_Test_Pr) refers to gpio.o(i.GPIOPinWrite) for GPIOPinWrite
    eng_err.o(i.Power_Test_Pr) refers to memseta.o(.text) for __aeabi_memset
    eng_err.o(i.Power_Test_Pr) refers to disp.o(i.Update_N_Buf) for Update_N_Buf
    eng_err.o(i.Power_Test_Pr) refers to disp.o(i.Update_Mtr_Num) for Update_Mtr_Num
    eng_err.o(i.Power_Test_Pr) refers to bitvari.o(.data) for MTR_PLUG
    eng_err.o(i.Power_Test_Pr) refers to vari.o(.data) for CAN_MSG_IPtr
    eng_err.o(i.Proc_ADC_Data) refers to ffltui.o(.text) for __aeabi_ui2f
    eng_err.o(i.Proc_ADC_Data) refers to fmul.o(.text) for __aeabi_fmul
    eng_err.o(i.Proc_ADC_Data) refers to fdiv.o(.text) for __aeabi_fdiv
    eng_err.o(i.Proc_ADC_Data) refers to f2d.o(.text) for __aeabi_f2d
    eng_err.o(i.Proc_ADC_Data) refers to dadd.o(.text) for __aeabi_dadd
    eng_err.o(i.Proc_ADC_Data) refers to d2f.o(.text) for __aeabi_d2f
    eng_err.o(i.Proc_ADC_Data) refers to ffixui.o(.text) for __aeabi_f2uiz
    eng_err.o(i.Proc_ADC_Data) refers to eng_err.o(i.Send_Data) for Send_Data
    eng_err.o(i.Proc_ADC_Data) refers to vari.o(.data) for ADC_Start
    eng_err.o(i.Proc_ADC_Data) refers to vari.o(.bss) for TEMP_STR
    eng_err.o(i.Proc_ADC_Timer) refers to init.o(i.Init_Adc) for Init_Adc
    eng_err.o(i.Proc_ADC_Timer) refers to adc.o(i.ADCProcessorTrigger) for ADCProcessorTrigger
    eng_err.o(i.Proc_ADC_Timer) refers to vari.o(.data) for ADC_Data
    eng_err.o(i.RST_IJDQ) refers to eng_err.o(i.I_In_Out_Pr) for I_In_Out_Pr
    eng_err.o(i.RST_IJDQ) refers to gpio.o(i.GPIOPinWrite) for GPIOPinWrite
    eng_err.o(i.RST_IJDQ) refers to memseta.o(.text) for __aeabi_memset
    eng_err.o(i.RST_IJDQ) refers to disp.o(i.Update_N_Buf) for Update_N_Buf
    eng_err.o(i.RST_IJDQ) refers to disp.o(i.Update_Mtr_Num) for Update_Mtr_Num
    eng_err.o(i.RST_IJDQ) refers to bitvari.o(.data) for MTR_PLUG
    eng_err.o(i.RST_IJDQ) refers to vari.o(.data) for Disp_Choose
    eng_err.o(i.RST_LED) refers to disp.o(i.Reset_HD7279) for Reset_HD7279
    eng_err.o(i.RST_LED) refers to memseta.o(.text) for __aeabi_memset
    eng_err.o(i.RST_LED) refers to disp.o(i.Update_N_Buf) for Update_N_Buf
    eng_err.o(i.RST_LED) refers to disp.o(i.Update_Mtr_Num) for Update_Mtr_Num
    eng_err.o(i.RST_LED) refers to vari.o(.data) for Disp_Buf
    eng_err.o(i.ReSet_ZZ_PLS_Pr) refers to vari.o(.data) for CAN_MSG_IPtr
    eng_err.o(i.ReSet_ZZ_PLS_Pr) refers to bitvari.o(.data) for ZZ_PLS_LOADED
    eng_err.o(i.ReStart_Mea_Err) refers to memseta.o(.text) for __aeabi_memset
    eng_err.o(i.ReStart_Mea_Err) refers to disp.o(i.Update_N_Buf) for Update_N_Buf
    eng_err.o(i.ReStart_Mea_Err) refers to disp.o(i.Update_Mtr_Num) for Update_Mtr_Num
    eng_err.o(i.ReStart_Mea_Err) refers to eng_err.o(i.Send_Data) for Send_Data
    eng_err.o(i.ReStart_Mea_Err) refers to vari.o(.data) for Disp_Choose
    eng_err.o(i.ReStart_Mea_Err) refers to bitvari.o(.data) for FIRST_ENG_PLS
    eng_err.o(i.START_STOP_MODE_Pr) refers to eng_err.o(i.ENG_PLS_IN_Pr) for ENG_PLS_IN_Pr
    eng_err.o(i.START_STOP_MODE_Pr) refers to eng_err.o(i.Uin_Iin_Pr) for Uin_Iin_Pr
    eng_err.o(i.START_STOP_MODE_Pr) refers to memseta.o(.text) for __aeabi_memset
    eng_err.o(i.START_STOP_MODE_Pr) refers to disp.o(i.Update_Mtr_Num) for Update_Mtr_Num
    eng_err.o(i.START_STOP_MODE_Pr) refers to disp.o(i.Update_N_Buf) for Update_N_Buf
    eng_err.o(i.START_STOP_MODE_Pr) refers to eng_err.o(i.Send_Data) for Send_Data
    eng_err.o(i.START_STOP_MODE_Pr) refers to bitvari.o(.data) for NEW_CMD
    eng_err.o(i.START_STOP_MODE_Pr) refers to vari.o(.data) for WORK_Timer
    eng_err.o(i.STS_Light_Pr) refers to gpio.o(i.GPIOPinWrite) for GPIOPinWrite
    eng_err.o(i.STS_Light_Pr) refers to vari.o(.data) for CAN_MSG_IPtr
    eng_err.o(i.SY_END) refers to eng_err.o(i.UJDQ_Close_ESwitch_Open) for UJDQ_Close_ESwitch_Open
    eng_err.o(i.SY_END) refers to bitvari.o(.data) for SY_START
    eng_err.o(i.SY_END) refers to vari.o(.data) for SY_PROCESS
    eng_err.o(i.Send_Data) refers to can_api.o(i.SDATA_MSG_OHead_ADD_ONE) for SDATA_MSG_OHead_ADD_ONE
    eng_err.o(i.Send_Data) refers to bitvari.o(.data) for CAN_ERR
    eng_err.o(i.Send_Data) refers to vari.o(.data) for CAN_MSG_OPtr
    eng_err.o(i.Send_Data) refers to can_api.o(.constdata) for CAN_TX_SMSG
    eng_err.o(i.Set_ADCONV) refers to vari.o(.data) for CAN_MSG_IPtr
    eng_err.o(i.Set_Clk_Ctl_Pr) refers to timer.o(i.TimerDisable) for TimerDisable
    eng_err.o(i.Set_Clk_Ctl_Pr) refers to timer.o(i.TimerIntClear) for TimerIntClear
    eng_err.o(i.Set_Clk_Ctl_Pr) refers to timer.o(i.TimerLoadSet) for TimerLoadSet
    eng_err.o(i.Set_Clk_Ctl_Pr) refers to timer.o(i.TimerEnable) for TimerEnable
    eng_err.o(i.Set_Clk_Ctl_Pr) refers to vari.o(.data) for CAN_MSG_IPtr
    eng_err.o(i.Set_Clk_Ctl_Pr) refers to bitvari.o(.data) for FIRST_CLK_PLS
    eng_err.o(i.Set_Clk_Freq_Pr) refers to cfcmple.o(.text) for __aeabi_cfcmpeq
    eng_err.o(i.Set_Clk_Freq_Pr) refers to clk_err.o(i.Cal_Clk_Reload) for Cal_Clk_Reload
    eng_err.o(i.Set_Clk_Freq_Pr) refers to vari.o(.data) for CAN_MSG_IPtr
    eng_err.o(i.Set_Clk_Time_Pr) refers to clk_err.o(i.Cal_Clk_Reload) for Cal_Clk_Reload
    eng_err.o(i.Set_Clk_Time_Pr) refers to vari.o(.data) for CAN_MSG_IPtr
    eng_err.o(i.Set_DOORCTL) refers to gpio.o(i.GPIOPinWrite) for GPIOPinWrite
    eng_err.o(i.Set_DOORCTL) refers to vari.o(.data) for CAN_MSG_IPtr
    eng_err.o(i.Set_DXTZ) refers to vari.o(.data) for CAN_MSG_IPtr
    eng_err.o(i.Set_DXTZ) refers to bitvari.o(.data) for SINGLE_OR_THREE
    eng_err.o(i.Set_Disp_Mode) refers to memseta.o(.text) for __aeabi_memset
    eng_err.o(i.Set_Disp_Mode) refers to disp.o(i.Update_N_Buf) for Update_N_Buf
    eng_err.o(i.Set_Disp_Mode) refers to disp.o(i.Update_Mtr_Num) for Update_Mtr_Num
    eng_err.o(i.Set_Disp_Mode) refers to vari.o(.data) for CAN_MSG_IPtr
    eng_err.o(i.Set_Disp_Mode) refers to bitvari.o(.data) for GZ_FLAG
    eng_err.o(i.Set_EQPMOD) refers to vari.o(.data) for CAN_MSG_IPtr
    eng_err.o(i.Set_Elec_Pls) refers to vari.o(.data) for CAN_MSG_IPtr
    eng_err.o(i.Set_MBJEN) refers to vari.o(.data) for CAN_MSG_IPtr
    eng_err.o(i.Set_MBJEN) refers to bitvari.o(.data) for MBJEN
    eng_err.o(i.Set_MFCLK_Mode) refers to eng_err.o(i.MFuction_Clk_Cfg) for MFuction_Clk_Cfg
    eng_err.o(i.Set_MFCLK_Mode) refers to vari.o(.data) for CAN_MSG_IPtr
    eng_err.o(i.Set_MFCLK_Type) refers to eng_err.o(i.MFuction_Clk_Cfg) for MFuction_Clk_Cfg
    eng_err.o(i.Set_MFCLK_Type) refers to vari.o(.data) for CAN_MSG_IPtr
    eng_err.o(i.Set_MTR_LCT_Com) refers to init.o(i.Init_Com) for Init_Com
    eng_err.o(i.Set_MTR_LCT_Com) refers to vari.o(.data) for CAN_MSG_IPtr
    eng_err.o(i.Set_MTR_LCT_Com) refers to vari.o(.bss) for Uart_Para
    eng_err.o(i.Set_MTYPE) refers to eng_err.o(i.Init_DEVICE_IO) for Init_DEVICE_IO
    eng_err.o(i.Set_MTYPE) refers to eng_err.o(i.Proc_MTYPE) for Proc_MTYPE
    eng_err.o(i.Set_MTYPE) refers to vari.o(.data) for CAN_MSG_IPtr
    eng_err.o(i.Set_Master_Start) refers to bitvari.o(.data) for MASTER_START
    eng_err.o(i.Set_Min_CST_Pr) refers to cfcmple.o(.text) for __aeabi_cfcmpeq
    eng_err.o(i.Set_Min_CST_Pr) refers to eng_err.o(i.Cal_STD_ENG_CNT_VAL) for Cal_STD_ENG_CNT_VAL
    eng_err.o(i.Set_Min_CST_Pr) refers to vari.o(.data) for CAN_MSG_IPtr
    eng_err.o(i.Set_Mtr_Cst_Pr) refers to cfcmple.o(.text) for __aeabi_cfcmpeq
    eng_err.o(i.Set_Mtr_Cst_Pr) refers to eng_err.o(i.Cal_STD_ENG_CNT_VAL) for Cal_STD_ENG_CNT_VAL
    eng_err.o(i.Set_Mtr_Cst_Pr) refers to fmul.o(.text) for __aeabi_fmul
    eng_err.o(i.Set_Mtr_Cst_Pr) refers to ffltui.o(.text) for __aeabi_ui2f
    eng_err.o(i.Set_Mtr_Cst_Pr) refers to fdiv.o(.text) for __aeabi_fdiv
    eng_err.o(i.Set_Mtr_Cst_Pr) refers to f2d.o(.text) for __aeabi_f2d
    eng_err.o(i.Set_Mtr_Cst_Pr) refers to dadd.o(.text) for __aeabi_dadd
    eng_err.o(i.Set_Mtr_Cst_Pr) refers to d2f.o(.text) for __aeabi_d2f
    eng_err.o(i.Set_Mtr_Cst_Pr) refers to ffixui.o(.text) for __aeabi_f2uiz
    eng_err.o(i.Set_Mtr_Cst_Pr) refers to printfa.o(i.__0sprintf) for __2sprintf
    eng_err.o(i.Set_Mtr_Cst_Pr) refers to init.o(i.Fill_Space_StrCpy) for Fill_Space_StrCpy
    eng_err.o(i.Set_Mtr_Cst_Pr) refers to vari.o(.data) for CAN_MSG_IPtr
    eng_err.o(i.Set_Mtr_Cst_Pr) refers to bitvari.o(.data) for FIRST_ENG_PLS
    eng_err.o(i.Set_Mtr_Cst_Pr) refers to vari.o(.bss) for TEMP_STR
    eng_err.o(i.Set_NPRS485) refers to gpio.o(i.GPIOPinWrite) for GPIOPinWrite
    eng_err.o(i.Set_NPRS485) refers to vari.o(.data) for CAN_MSG_IPtr
    eng_err.o(i.Set_N_Pr) refers to eng_err.o(i.Cal_STD_ENG_CNT_VAL) for Cal_STD_ENG_CNT_VAL
    eng_err.o(i.Set_N_Pr) refers to vari.o(.data) for CAN_MSG_IPtr
    eng_err.o(i.Set_N_Pr) refers to bitvari.o(.data) for NEW_CMD
    eng_err.o(i.Set_PLSHC) refers to eng_err.o(i.SEL_ELEPLS_IN) for SEL_ELEPLS_IN
    eng_err.o(i.Set_PLSHC) refers to vari.o(.data) for CAN_MSG_IPtr
    eng_err.o(i.Set_PLS_QUAD) refers to eng_err.o(i.SEL_ELEPLS_IN) for SEL_ELEPLS_IN
    eng_err.o(i.Set_PLS_QUAD) refers to vari.o(.data) for CAN_MSG_IPtr
    eng_err.o(i.Set_PULRUN) refers to vari.o(.data) for MTR_MOD
    eng_err.o(i.Set_PULRUN) refers to bitvari.o(.data) for Pulse1_RUN_CTL
    eng_err.o(i.Set_PULSET) refers to gpio.o(i.GPIOPinWrite) for GPIOPinWrite
    eng_err.o(i.Set_PULSET) refers to vari.o(.data) for MTR_MOD
    eng_err.o(i.Set_PULSET) refers to bitvari.o(.data) for Pulse1_RUN_CTL
    eng_err.o(i.Set_Pzbz_Pr) refers to vari.o(.data) for CAN_MSG_IPtr
    eng_err.o(i.Set_Pzbz_Pr) refers to bitvari.o(.data) for NEW_CMD
    eng_err.o(i.Set_Pzzs_Pr) refers to vari.o(.data) for CAN_MSG_IPtr
    eng_err.o(i.Set_Pzzs_Pr) refers to bitvari.o(.data) for NEW_CMD
    eng_err.o(i.Set_RSTS) refers to eng_err.o(i.Send_Data) for Send_Data
    eng_err.o(i.Set_RSTS) refers to vari.o(.data) for WORK_MODE
    eng_err.o(i.Set_RSTS) refers to vari.o(.bss) for TEMP_STR
    eng_err.o(i.Set_ReTx_LctD) refers to vari.o(.data) for Com_Rx_Sts
    eng_err.o(i.Set_ReTx_LctD) refers to vari.o(.bss) for Com_IHead
    eng_err.o(i.Set_ReTx_MtrD) refers to vari.o(.data) for Com_Rx_Sts
    eng_err.o(i.Set_ReTx_MtrD) refers to vari.o(.bss) for Com_IHead
    eng_err.o(i.Set_Read_Ver) refers to eng_err.o(i.Send_Data) for Send_Data
    eng_err.o(i.Set_Read_Ver) refers to vari.o(.data) for Mtr_Numb_ID
    eng_err.o(i.Set_Read_Ver) refers to init.o(.constdata) for VER_TAB
    eng_err.o(i.Set_Read_Ver) refers to vari.o(.bss) for TEMP_STR
    eng_err.o(i.Set_Reload_LctD) refers to vari.o(.data) for Com_Tx_Sts
    eng_err.o(i.Set_Reload_LctD) refers to vari.o(.bss) for Com_OHead
    eng_err.o(i.Set_Reload_MtrD) refers to vari.o(.data) for Com_Tx_Sts
    eng_err.o(i.Set_Reload_MtrD) refers to vari.o(.bss) for Com_OHead
    eng_err.o(i.Set_SLEDN) refers to init.o(i.Solid_Save_Tab) for Solid_Save_Tab
    eng_err.o(i.Set_SLEDN) refers to disp.o(i.Update_N_Buf) for Update_N_Buf
    eng_err.o(i.Set_SLEDN) refers to disp.o(i.Update_Mtr_Num) for Update_Mtr_Num
    eng_err.o(i.Set_SLEDN) refers to vari.o(.data) for CAN_MSG_IPtr
    eng_err.o(i.Set_STD_CST_Pr) refers to cfcmple.o(.text) for __aeabi_cfcmpeq
    eng_err.o(i.Set_STD_CST_Pr) refers to eng_err.o(i.Cal_STD_ENG_CNT_VAL) for Cal_STD_ENG_CNT_VAL
    eng_err.o(i.Set_STD_CST_Pr) refers to vari.o(.data) for CAN_MSG_IPtr
    eng_err.o(i.Set_STD_CST_Pr) refers to bitvari.o(.data) for FIRST_ENG_PLS
    eng_err.o(i.Set_Sy) refers to vari.o(.data) for CAN_MSG_IPtr
    eng_err.o(i.Set_Sy_Ph) refers to vari.o(.data) for CAN_MSG_IPtr
    eng_err.o(i.Set_TS) refers to eng_err.o(i.ESwitch_Control_Pr) for ESwitch_Control_Pr
    eng_err.o(i.Set_TS) refers to eng_err.o(i.UJDQ_Control_Pr) for UJDQ_Control_Pr
    eng_err.o(i.Set_TS) refers to vari.o(.data) for CAN_MSG_IPtr
    eng_err.o(i.Set_TS) refers to bitvari.o(.data) for SINGLE_OR_THREE
    eng_err.o(i.Set_TS) refers to bitvari.o(.bss) for U_ESwitch
    eng_err.o(i.Set_TTAB) refers to vari.o(.data) for CAN_MSG_IPtr
    eng_err.o(i.Set_TTAB) refers to bitvari.o(.data) for TTAB_JDQ_DELY
    eng_err.o(i.Set_TZEN) refers to vari.o(.data) for CAN_MSG_IPtr
    eng_err.o(i.Set_TZEN) refers to bitvari.o(.data) for TZEN
    eng_err.o(i.Set_Time_Base) refers to vari.o(.data) for CAN_MSG_IPtr
    eng_err.o(i.Set_UCLOP) refers to eng_err.o(i.UJDQ_Open_ESwitch_Open) for UJDQ_Open_ESwitch_Open
    eng_err.o(i.Set_UCLOP) refers to eng_err.o(i.UJDQ_Close_ESwitch_Open) for UJDQ_Close_ESwitch_Open
    eng_err.o(i.Set_UCLOP) refers to eng_err.o(i.UJDQ_Open_ESwitch_Close) for UJDQ_Open_ESwitch_Close
    eng_err.o(i.Set_UCLOP) refers to vari.o(.data) for CAN_MSG_IPtr
    eng_err.o(i.Set_UCLOP) refers to bitvari.o(.data) for MTR_PLUG
    eng_err.o(i.Set_XuL_Ctl_Pr) refers to timer.o(i.TimerDisable) for TimerDisable
    eng_err.o(i.Set_XuL_Ctl_Pr) refers to timer.o(i.TimerIntClear) for TimerIntClear
    eng_err.o(i.Set_XuL_Ctl_Pr) refers to timer.o(i.TimerLoadSet) for TimerLoadSet
    eng_err.o(i.Set_XuL_Ctl_Pr) refers to timer.o(i.TimerEnable) for TimerEnable
    eng_err.o(i.Set_XuL_Ctl_Pr) refers to vari.o(.data) for CAN_MSG_IPtr
    eng_err.o(i.Set_XuL_Ctl_Pr) refers to bitvari.o(.data) for FIRST_XUL_PLS
    eng_err.o(i.Set_XuL_Pls_Num) refers to vari.o(.data) for CAN_MSG_IPtr
    eng_err.o(i.Set_XuL_Pls_Num) refers to bitvari.o(.data) for FIRST_XUL_PLS
    eng_err.o(i.Set_YKPULSE) refers to vari.o(.data) for MTR_MOD
    eng_err.o(i.Set_YKPULSE) refers to bitvari.o(.data) for YKSIG_TRG_MOD
    eng_err.o(i.Set_YKSET) refers to vari.o(.data) for MTR_MOD
    eng_err.o(i.Set_YKSET) refers to bitvari.o(.data) for YKSIG_EN
    eng_err.o(i.Set_YXCTL) refers to gpio.o(i.GPIOPinWrite) for GPIOPinWrite
    eng_err.o(i.Set_YXCTL) refers to vari.o(.data) for CAN_MSG_IPtr
    eng_err.o(i.Set_ZBTST) refers to gpio.o(i.GPIOPinWrite) for GPIOPinWrite
    eng_err.o(i.Set_ZBTST) refers to bitvari.o(.data) for MTR_PLUG
    eng_err.o(i.Set_ZBTST) refers to vari.o(.data) for CAN_MSG_IPtr
    eng_err.o(i.Set_ZZ_Ds) refers to cfcmple.o(.text) for __aeabi_cfcmpeq
    eng_err.o(i.Set_ZZ_Ds) refers to fmul.o(.text) for __aeabi_fmul
    eng_err.o(i.Set_ZZ_Ds) refers to ffltui.o(.text) for __aeabi_ui2f
    eng_err.o(i.Set_ZZ_Ds) refers to fdiv.o(.text) for __aeabi_fdiv
    eng_err.o(i.Set_ZZ_Ds) refers to f2d.o(.text) for __aeabi_f2d
    eng_err.o(i.Set_ZZ_Ds) refers to dadd.o(.text) for __aeabi_dadd
    eng_err.o(i.Set_ZZ_Ds) refers to d2f.o(.text) for __aeabi_d2f
    eng_err.o(i.Set_ZZ_Ds) refers to ffixui.o(.text) for __aeabi_f2uiz
    eng_err.o(i.Set_ZZ_Ds) refers to printfa.o(i.__0sprintf) for __2sprintf
    eng_err.o(i.Set_ZZ_Ds) refers to init.o(i.Fill_Space_StrCpy) for Fill_Space_StrCpy
    eng_err.o(i.Set_ZZ_Ds) refers to vari.o(.data) for CAN_MSG_IPtr
    eng_err.o(i.Set_ZZ_Ds) refers to vari.o(.bss) for TEMP_STR
    eng_err.o(i.Set_ZZ_PLS_Pr) refers to vari.o(.data) for CAN_MSG_IPtr
    eng_err.o(i.Start_Ny_Pr) refers to bitvari.o(.data) for MTR_PLUG
    eng_err.o(i.Start_Ny_Pr) refers to vari.o(.data) for WORK_MODE
    eng_err.o(i.Start_Stop_Pr) refers to gpio.o(i.GPIOPinWrite) for GPIOPinWrite
    eng_err.o(i.Start_Stop_Pr) refers to bitvari.o(.data) for MTR_PLUG
    eng_err.o(i.Start_Stop_Pr) refers to vari.o(.data) for Mtr_Numb_ID
    eng_err.o(i.Start_Sy_Pr) refers to bitvari.o(.data) for MTR_PLUG
    eng_err.o(i.Start_Sy_Pr) refers to vari.o(.data) for WORK_MODE
    eng_err.o(i.UJDQ_Close_ESwitch_Open) refers to eng_err.o(i.ESwitch_Control_Pr) for ESwitch_Control_Pr
    eng_err.o(i.UJDQ_Close_ESwitch_Open) refers to eng_err.o(i.UJDQ_Control_Pr) for UJDQ_Control_Pr
    eng_err.o(i.UJDQ_Control_Pr) refers to bitvari.o(.data) for SINGLE_OR_THREE
    eng_err.o(i.UJDQ_Control_Pr) refers to bitvari.o(.bss) for U_JDQ
    eng_err.o(i.UJDQ_Control_Pr) refers to vari.o(.data) for Timer_8ms
    eng_err.o(i.UJDQ_ESwitch_Time_Pr) refers to gpio.o(i.GPIOPinWrite) for GPIOPinWrite
    eng_err.o(i.UJDQ_ESwitch_Time_Pr) refers to bitvari.o(.data) for UJDQ_FLAG
    eng_err.o(i.UJDQ_ESwitch_Time_Pr) refers to vari.o(.data) for Timer_8ms
    eng_err.o(i.UJDQ_ESwitch_Time_Pr) refers to bitvari.o(.bss) for U_JDQ
    eng_err.o(i.UJDQ_Open_ESwitch_Close) refers to eng_err.o(i.ESwitch_Control_Pr) for ESwitch_Control_Pr
    eng_err.o(i.UJDQ_Open_ESwitch_Close) refers to eng_err.o(i.UJDQ_Control_Pr) for UJDQ_Control_Pr
    eng_err.o(i.UJDQ_Open_ESwitch_Close) refers to bitvari.o(.data) for SINGLE_OR_THREE
    eng_err.o(i.UJDQ_Open_ESwitch_Open) refers to eng_err.o(i.ESwitch_Control_Pr) for ESwitch_Control_Pr
    eng_err.o(i.UJDQ_Open_ESwitch_Open) refers to eng_err.o(i.UJDQ_Control_Pr) for UJDQ_Control_Pr
    eng_err.o(i.UJDQ_Open_ESwitch_Open) refers to bitvari.o(.data) for SINGLE_OR_THREE
    eng_err.o(i.Uin_Iin_Pr) refers to eng_err.o(i.UJDQ_Close_ESwitch_Open) for UJDQ_Close_ESwitch_Open
    eng_err.o(i.Uin_Iin_Pr) refers to eng_err.o(i.I_In_Out_Pr) for I_In_Out_Pr
    eng_err.o(i.Uin_Iin_Pr) refers to gpio.o(i.GPIOPinWrite) for GPIOPinWrite
    eng_err.o(i.Uin_Iin_Pr) refers to bitvari.o(.data) for I_JDQ
    eng_err.o(i.VERIFY_READY_MODE_Pr) refers to eng_err.o(i.ENG_PLS_IN_Pr) for ENG_PLS_IN_Pr
    eng_err.o(i.VERIFY_READY_MODE_Pr) refers to eng_err.o(i.Uin_Iin_Pr) for Uin_Iin_Pr
    eng_err.o(i.VERIFY_READY_MODE_Pr) refers to disp.o(i.Disp_Long_Data) for Disp_Long_Data
    eng_err.o(i.VERIFY_READY_MODE_Pr) refers to bitvari.o(.data) for NEW_CMD
    eng_err.o(i.VERIFY_READY_MODE_Pr) refers to vari.o(.data) for WORK_Timer
    eng_err.o(i.VERIFY_START_MODE_Pr) refers to disp.o(i.Disp_Long_Data) for Disp_Long_Data
    eng_err.o(i.VERIFY_START_MODE_Pr) refers to eng_err.o(i.Uin_Iin_Pr) for Uin_Iin_Pr
    eng_err.o(i.VERIFY_START_MODE_Pr) refers to eng_err.o(i.Send_Data) for Send_Data
    eng_err.o(i.VERIFY_START_MODE_Pr) refers to eng_err.o(i.UJDQ_Open_ESwitch_Open) for UJDQ_Open_ESwitch_Open
    eng_err.o(i.VERIFY_START_MODE_Pr) refers to memseta.o(.text) for __aeabi_memset
    eng_err.o(i.VERIFY_START_MODE_Pr) refers to disp.o(i.Copy_Str_To_DSBUF) for Copy_Str_To_DSBUF
    eng_err.o(i.VERIFY_START_MODE_Pr) refers to bitvari.o(.data) for NEW_CMD
    eng_err.o(i.VERIFY_START_MODE_Pr) refers to vari.o(.data) for WORK_Timer
    eng_err.o(i.VERIFY_START_MODE_Pr) refers to vari.o(.bss) for VERIFY_ENG_ASC
    eng_err.o(i.VOLTAGE_DOWN_MODE_Pr) refers to eng_err.o(i.UJDQ_Close_ESwitch_Open) for UJDQ_Close_ESwitch_Open
    eng_err.o(i.VOLTAGE_DOWN_MODE_Pr) refers to eng_err.o(i.UJDQ_Open_ESwitch_Close) for UJDQ_Open_ESwitch_Close
    eng_err.o(i.VOLTAGE_DOWN_MODE_Pr) refers to timer.o(i.TimerDisable) for TimerDisable
    eng_err.o(i.VOLTAGE_DOWN_MODE_Pr) refers to timer.o(i.TimerLoadSet) for TimerLoadSet
    eng_err.o(i.VOLTAGE_DOWN_MODE_Pr) refers to timer.o(i.TimerMatchSet) for TimerMatchSet
    eng_err.o(i.VOLTAGE_DOWN_MODE_Pr) refers to timer.o(i.TimerEnable) for TimerEnable
    eng_err.o(i.VOLTAGE_DOWN_MODE_Pr) refers to memseta.o(.text) for __aeabi_memset
    eng_err.o(i.VOLTAGE_DOWN_MODE_Pr) refers to disp.o(i.Update_N_Buf) for Update_N_Buf
    eng_err.o(i.VOLTAGE_DOWN_MODE_Pr) refers to disp.o(i.Update_Mtr_Num) for Update_Mtr_Num
    eng_err.o(i.VOLTAGE_DOWN_MODE_Pr) refers to eng_err.o(i.Send_Data) for Send_Data
    eng_err.o(i.VOLTAGE_DOWN_MODE_Pr) refers to eng_err.o(i.ESwitch_Control_Pr) for ESwitch_Control_Pr
    eng_err.o(i.VOLTAGE_DOWN_MODE_Pr) refers to eng_err.o(i.SY_END) for SY_END
    eng_err.o(i.VOLTAGE_DOWN_MODE_Pr) refers to vari.o(.data) for Timer_1ms
    eng_err.o(i.VOLTAGE_DOWN_MODE_Pr) refers to bitvari.o(.data) for NEW_CMD
    eng_err.o(i.Verify_Start_Pr) refers to bitvari.o(.data) for MTR_PLUG
    eng_err.o(i.Verify_Start_Pr) refers to vari.o(.data) for WORK_MODE
    eng_err.o(i.WIRE_TYPE_Pr) refers to vari.o(.data) for CAN_MSG_IPtr
    eng_err.o(i.WIRE_TYPE_Pr) refers to bitvari.o(.data) for NEW_CMD
    eng_err.o(i.Work_Mode_Pr) refers to eng_err.o(i.ENG_ERR_MODE_Pr) for ENG_ERR_MODE_Pr
    eng_err.o(i.Work_Mode_Pr) refers to eng_err.o(i.MTR_PLUG_MODE_Pr) for MTR_PLUG_MODE_Pr
    eng_err.o(i.Work_Mode_Pr) refers to eng_err.o(i.CATCH_HB_MODE_Pr) for CATCH_HB_MODE_Pr
    eng_err.o(i.Work_Mode_Pr) refers to eng_err.o(i.START_STOP_MODE_Pr) for START_STOP_MODE_Pr
    eng_err.o(i.Work_Mode_Pr) refers to eng_err.o(i.VERIFY_READY_MODE_Pr) for VERIFY_READY_MODE_Pr
    eng_err.o(i.Work_Mode_Pr) refers to eng_err.o(i.VERIFY_START_MODE_Pr) for VERIFY_START_MODE_Pr
    eng_err.o(i.Work_Mode_Pr) refers to eng_err.o(i.VOLTAGE_DOWN_MODE_Pr) for VOLTAGE_DOWN_MODE_Pr
    eng_err.o(i.Work_Mode_Pr) refers to eng_err.o(i.MEASURE_ENG_MODE_Pr) for MEASURE_ENG_MODE_Pr
    eng_err.o(i.Work_Mode_Pr) refers to eng_err.o(i.PANZHUAN_ERR_MODE_Pr) for PANZHUAN_ERR_MODE_Pr
    eng_err.o(i.Work_Mode_Pr) refers to eng_err.o(i.MEA_CST_MODE_Pr) for MEA_CST_MODE_Pr
    eng_err.o(i.Work_Mode_Pr) refers to eng_err.o(i.MEA_POWER_D_MODE_Pr) for MEA_POWER_D_MODE_Pr
    eng_err.o(i.Work_Mode_Pr) refers to eng_err.o(i.MEA_ENG_DUTY_MODE_Pr) for MEA_ENG_DUTY_MODE_Pr
    eng_err.o(i.Work_Mode_Pr) refers to eng_err.o(i.PULSE_ZZ_MODE_Pr) for PULSE_ZZ_MODE_Pr
    eng_err.o(i.Work_Mode_Pr) refers to eng_err.o(i.NYSY_MODE_Pr) for NYSY_MODE_Pr
    eng_err.o(i.Work_Mode_Pr) refers to eng_err.o(i.GDGZ_MODE_Pr) for GDGZ_MODE_Pr
    eng_err.o(i.Work_Mode_Pr) refers to eng_err.o(i.ZBTX_MODE_Pr) for ZBTX_MODE_Pr
    eng_err.o(i.Work_Mode_Pr) refers to vari.o(.data) for WORK_MODE
    eng_err.o(i.ZBTX_MODE_Pr) refers to eng_err.o(i.ESwitch_Control_Pr) for ESwitch_Control_Pr
    eng_err.o(i.ZBTX_MODE_Pr) refers to eng_err.o(i.UJDQ_Control_Pr) for UJDQ_Control_Pr
    eng_err.o(i.ZBTX_MODE_Pr) refers to bitvari.o(.data) for NEW_CMD
    eng_err.o(i.ZBTX_MODE_Pr) refers to vari.o(.data) for WORK_Timer
    eng_err.o(.constdata) refers to vari.o(.data) for GDT_Timer
    eng_err.o(.constdata) refers to bitvari.o(.data) for GDT_INT_REEN
    usr_lib.o(i.CAN1_Rx_Msg) refers to usr_lib.o(i.CANDataRegRead) for CANDataRegRead
    usr_lib.o(i.CAN1_Tx_Msg) refers to usr_lib.o(i.CANDataRegWrite) for CANDataRegWrite
    usr_lib.o(i.CAN_Rx_Msg) refers to usr_lib.o(i.CANDataRegRead) for CANDataRegRead
    usr_lib.o(i.CAN_Tx_Msg) refers to usr_lib.o(i.CANDataRegWrite) for CANDataRegWrite
    usr_lib.o(i.Set_CAN1MsgRam) refers to usr_lib.o(i.CAN1_RxMsg_Set) for CAN1_RxMsg_Set
    usr_lib.o(i.Set_CAN1MsgRam) refers to init.o(.constdata) for CAN1_MSG_SET_TAB
    usr_lib.o(i.Set_CAN1MsgRam) refers to vari.o(.data) for Mtr_Numb_ID
    usr_lib.o(i.Set_MsgRam) refers to usr_lib.o(i.CAN_RxMsg_Set) for CAN_RxMsg_Set
    usr_lib.o(i.Set_MsgRam) refers to init.o(.constdata) for CAN_MSG_SET_TAB
    usr_lib.o(i.Set_MsgRam) refers to vari.o(.data) for Mtr_Numb_ID
    usr_lib.o(i.WDTFeed) refers to watchdog.o(i.WatchdogReloadGet) for WatchdogReloadGet
    usr_lib.o(i.WDTFeed) refers to watchdog.o(i.WatchdogReloadSet) for WatchdogReloadSet
    entry.o(.ARM.Collect$$$$00000000) refers (Special) to entry10a.o(.ARM.Collect$$$$0000000D) for __rt_final_cpp
    entry.o(.ARM.Collect$$$$00000000) refers (Special) to entry11a.o(.ARM.Collect$$$$0000000F) for __rt_final_exit
    entry.o(.ARM.Collect$$$$00000000) refers (Special) to entry7b.o(.ARM.Collect$$$$00000008) for _main_clock
    entry.o(.ARM.Collect$$$$00000000) refers (Special) to entry8b.o(.ARM.Collect$$$$0000000A) for _main_cpp_init
    entry.o(.ARM.Collect$$$$00000000) refers (Special) to entry9a.o(.ARM.Collect$$$$0000000B) for _main_init
    entry.o(.ARM.Collect$$$$00000000) refers (Special) to entry5.o(.ARM.Collect$$$$00000004) for _main_scatterload
    entry.o(.ARM.Collect$$$$00000000) refers (Special) to entry2.o(.ARM.Collect$$$$00000001) for _main_stk
    printfb.o(i.__0fprintf$bare) refers to printfb.o(i._printf_core) for _printf_core
    printfb.o(i.__0fprintf$bare) refers to fputc.o(i.fputc) for fputc
    printfb.o(i.__0printf$bare) refers to printfb.o(i._printf_core) for _printf_core
    printfb.o(i.__0printf$bare) refers to fputc.o(i.fputc) for fputc
    printfb.o(i.__0printf$bare) refers to stdout.o(.data) for __stdout
    printfb.o(i.__0snprintf$bare) refers to printfb.o(i._printf_core) for _printf_core
    printfb.o(i.__0snprintf$bare) refers to printfb.o(i._snputc) for _snputc
    printfb.o(i.__0sprintf$bare) refers to printfb.o(i._printf_core) for _printf_core
    printfb.o(i.__0sprintf$bare) refers to printfb.o(i._sputc) for _sputc
    printfb.o(i.__0vfprintf$bare) refers to printfb.o(i._printf_core) for _printf_core
    printfb.o(i.__0vfprintf$bare) refers to fputc.o(i.fputc) for fputc
    printfb.o(i.__0vprintf$bare) refers to printfb.o(i._printf_core) for _printf_core
    printfb.o(i.__0vprintf$bare) refers to fputc.o(i.fputc) for fputc
    printfb.o(i.__0vprintf$bare) refers to stdout.o(.data) for __stdout
    printfb.o(i.__0vsnprintf$bare) refers to printfb.o(i._printf_core) for _printf_core
    printfb.o(i.__0vsnprintf$bare) refers to printfb.o(i._snputc) for _snputc
    printfb.o(i.__0vsprintf$bare) refers to printfb.o(i._printf_core) for _printf_core
    printfb.o(i.__0vsprintf$bare) refers to printfb.o(i._sputc) for _sputc
    printf0.o(i.__0fprintf$0) refers to printf0.o(i._printf_core) for _printf_core
    printf0.o(i.__0fprintf$0) refers to fputc.o(i.fputc) for fputc
    printf0.o(i.__0printf$0) refers to printf0.o(i._printf_core) for _printf_core
    printf0.o(i.__0printf$0) refers to fputc.o(i.fputc) for fputc
    printf0.o(i.__0printf$0) refers to stdout.o(.data) for __stdout
    printf0.o(i.__0snprintf$0) refers to printf0.o(i._printf_core) for _printf_core
    printf0.o(i.__0snprintf$0) refers to printf0.o(i._snputc) for _snputc
    printf0.o(i.__0sprintf$0) refers to printf0.o(i._printf_core) for _printf_core
    printf0.o(i.__0sprintf$0) refers to printf0.o(i._sputc) for _sputc
    printf0.o(i.__0vfprintf$0) refers to printf0.o(i._printf_core) for _printf_core
    printf0.o(i.__0vfprintf$0) refers to fputc.o(i.fputc) for fputc
    printf0.o(i.__0vprintf$0) refers to printf0.o(i._printf_core) for _printf_core
    printf0.o(i.__0vprintf$0) refers to fputc.o(i.fputc) for fputc
    printf0.o(i.__0vprintf$0) refers to stdout.o(.data) for __stdout
    printf0.o(i.__0vsnprintf$0) refers to printf0.o(i._printf_core) for _printf_core
    printf0.o(i.__0vsnprintf$0) refers to printf0.o(i._snputc) for _snputc
    printf0.o(i.__0vsprintf$0) refers to printf0.o(i._printf_core) for _printf_core
    printf0.o(i.__0vsprintf$0) refers to printf0.o(i._sputc) for _sputc
    printf1.o(i.__0fprintf$1) refers to printf1.o(i._printf_core) for _printf_core
    printf1.o(i.__0fprintf$1) refers to fputc.o(i.fputc) for fputc
    printf1.o(i.__0printf$1) refers to printf1.o(i._printf_core) for _printf_core
    printf1.o(i.__0printf$1) refers to fputc.o(i.fputc) for fputc
    printf1.o(i.__0printf$1) refers to stdout.o(.data) for __stdout
    printf1.o(i.__0snprintf$1) refers to printf1.o(i._printf_core) for _printf_core
    printf1.o(i.__0snprintf$1) refers to printf1.o(i._snputc) for _snputc
    printf1.o(i.__0sprintf$1) refers to printf1.o(i._printf_core) for _printf_core
    printf1.o(i.__0sprintf$1) refers to printf1.o(i._sputc) for _sputc
    printf1.o(i.__0vfprintf$1) refers to printf1.o(i._printf_core) for _printf_core
    printf1.o(i.__0vfprintf$1) refers to fputc.o(i.fputc) for fputc
    printf1.o(i.__0vprintf$1) refers to printf1.o(i._printf_core) for _printf_core
    printf1.o(i.__0vprintf$1) refers to fputc.o(i.fputc) for fputc
    printf1.o(i.__0vprintf$1) refers to stdout.o(.data) for __stdout
    printf1.o(i.__0vsnprintf$1) refers to printf1.o(i._printf_core) for _printf_core
    printf1.o(i.__0vsnprintf$1) refers to printf1.o(i._snputc) for _snputc
    printf1.o(i.__0vsprintf$1) refers to printf1.o(i._printf_core) for _printf_core
    printf1.o(i.__0vsprintf$1) refers to printf1.o(i._sputc) for _sputc
    printf1.o(i._printf_core) refers to uidiv.o(.text) for __aeabi_uidivmod
    printf2.o(i.__0fprintf$2) refers to printf2.o(i._printf_core) for _printf_core
    printf2.o(i.__0fprintf$2) refers to fputc.o(i.fputc) for fputc
    printf2.o(i.__0printf$2) refers to printf2.o(i._printf_core) for _printf_core
    printf2.o(i.__0printf$2) refers to fputc.o(i.fputc) for fputc
    printf2.o(i.__0printf$2) refers to stdout.o(.data) for __stdout
    printf2.o(i.__0snprintf$2) refers to printf2.o(i._printf_core) for _printf_core
    printf2.o(i.__0snprintf$2) refers to printf2.o(i._snputc) for _snputc
    printf2.o(i.__0sprintf$2) refers to printf2.o(i._printf_core) for _printf_core
    printf2.o(i.__0sprintf$2) refers to printf2.o(i._sputc) for _sputc
    printf2.o(i.__0vfprintf$2) refers to printf2.o(i._printf_core) for _printf_core
    printf2.o(i.__0vfprintf$2) refers to fputc.o(i.fputc) for fputc
    printf2.o(i.__0vprintf$2) refers to printf2.o(i._printf_core) for _printf_core
    printf2.o(i.__0vprintf$2) refers to fputc.o(i.fputc) for fputc
    printf2.o(i.__0vprintf$2) refers to stdout.o(.data) for __stdout
    printf2.o(i.__0vsnprintf$2) refers to printf2.o(i._printf_core) for _printf_core
    printf2.o(i.__0vsnprintf$2) refers to printf2.o(i._snputc) for _snputc
    printf2.o(i.__0vsprintf$2) refers to printf2.o(i._printf_core) for _printf_core
    printf2.o(i.__0vsprintf$2) refers to printf2.o(i._sputc) for _sputc
    printf3.o(i.__0fprintf$3) refers to printf3.o(i._printf_core) for _printf_core
    printf3.o(i.__0fprintf$3) refers to fputc.o(i.fputc) for fputc
    printf3.o(i.__0printf$3) refers to printf3.o(i._printf_core) for _printf_core
    printf3.o(i.__0printf$3) refers to fputc.o(i.fputc) for fputc
    printf3.o(i.__0printf$3) refers to stdout.o(.data) for __stdout
    printf3.o(i.__0snprintf$3) refers to printf3.o(i._printf_core) for _printf_core
    printf3.o(i.__0snprintf$3) refers to printf3.o(i._snputc) for _snputc
    printf3.o(i.__0sprintf$3) refers to printf3.o(i._printf_core) for _printf_core
    printf3.o(i.__0sprintf$3) refers to printf3.o(i._sputc) for _sputc
    printf3.o(i.__0vfprintf$3) refers to printf3.o(i._printf_core) for _printf_core
    printf3.o(i.__0vfprintf$3) refers to fputc.o(i.fputc) for fputc
    printf3.o(i.__0vprintf$3) refers to printf3.o(i._printf_core) for _printf_core
    printf3.o(i.__0vprintf$3) refers to fputc.o(i.fputc) for fputc
    printf3.o(i.__0vprintf$3) refers to stdout.o(.data) for __stdout
    printf3.o(i.__0vsnprintf$3) refers to printf3.o(i._printf_core) for _printf_core
    printf3.o(i.__0vsnprintf$3) refers to printf3.o(i._snputc) for _snputc
    printf3.o(i.__0vsprintf$3) refers to printf3.o(i._printf_core) for _printf_core
    printf3.o(i.__0vsprintf$3) refers to printf3.o(i._sputc) for _sputc
    printf3.o(i._printf_core) refers to uidiv.o(.text) for __aeabi_uidivmod
    printf4.o(i.__0fprintf$4) refers to printf4.o(i._printf_core) for _printf_core
    printf4.o(i.__0fprintf$4) refers to fputc.o(i.fputc) for fputc
    printf4.o(i.__0printf$4) refers to printf4.o(i._printf_core) for _printf_core
    printf4.o(i.__0printf$4) refers to fputc.o(i.fputc) for fputc
    printf4.o(i.__0printf$4) refers to stdout.o(.data) for __stdout
    printf4.o(i.__0snprintf$4) refers to printf4.o(i._printf_core) for _printf_core
    printf4.o(i.__0snprintf$4) refers to printf4.o(i._snputc) for _snputc
    printf4.o(i.__0sprintf$4) refers to printf4.o(i._printf_core) for _printf_core
    printf4.o(i.__0sprintf$4) refers to printf4.o(i._sputc) for _sputc
    printf4.o(i.__0vfprintf$4) refers to printf4.o(i._printf_core) for _printf_core
    printf4.o(i.__0vfprintf$4) refers to fputc.o(i.fputc) for fputc
    printf4.o(i.__0vprintf$4) refers to printf4.o(i._printf_core) for _printf_core
    printf4.o(i.__0vprintf$4) refers to fputc.o(i.fputc) for fputc
    printf4.o(i.__0vprintf$4) refers to stdout.o(.data) for __stdout
    printf4.o(i.__0vsnprintf$4) refers to printf4.o(i._printf_core) for _printf_core
    printf4.o(i.__0vsnprintf$4) refers to printf4.o(i._snputc) for _snputc
    printf4.o(i.__0vsprintf$4) refers to printf4.o(i._printf_core) for _printf_core
    printf4.o(i.__0vsprintf$4) refers to printf4.o(i._sputc) for _sputc
    printf4.o(i._printf_core) refers to uldiv.o(.text) for __aeabi_uldivmod
    printf5.o(i.__0fprintf$5) refers to printf5.o(i._printf_core) for _printf_core
    printf5.o(i.__0fprintf$5) refers to fputc.o(i.fputc) for fputc
    printf5.o(i.__0printf$5) refers to printf5.o(i._printf_core) for _printf_core
    printf5.o(i.__0printf$5) refers to fputc.o(i.fputc) for fputc
    printf5.o(i.__0printf$5) refers to stdout.o(.data) for __stdout
    printf5.o(i.__0snprintf$5) refers to printf5.o(i._printf_core) for _printf_core
    printf5.o(i.__0snprintf$5) refers to printf5.o(i._snputc) for _snputc
    printf5.o(i.__0sprintf$5) refers to printf5.o(i._printf_core) for _printf_core
    printf5.o(i.__0sprintf$5) refers to printf5.o(i._sputc) for _sputc
    printf5.o(i.__0vfprintf$5) refers to printf5.o(i._printf_core) for _printf_core
    printf5.o(i.__0vfprintf$5) refers to fputc.o(i.fputc) for fputc
    printf5.o(i.__0vprintf$5) refers to printf5.o(i._printf_core) for _printf_core
    printf5.o(i.__0vprintf$5) refers to fputc.o(i.fputc) for fputc
    printf5.o(i.__0vprintf$5) refers to stdout.o(.data) for __stdout
    printf5.o(i.__0vsnprintf$5) refers to printf5.o(i._printf_core) for _printf_core
    printf5.o(i.__0vsnprintf$5) refers to printf5.o(i._snputc) for _snputc
    printf5.o(i.__0vsprintf$5) refers to printf5.o(i._printf_core) for _printf_core
    printf5.o(i.__0vsprintf$5) refers to printf5.o(i._sputc) for _sputc
    printf5.o(i._printf_core) refers to uldiv.o(.text) for __aeabi_uldivmod
    printf6.o(i.__0fprintf$6) refers to printf6.o(i._printf_core) for _printf_core
    printf6.o(i.__0fprintf$6) refers to fputc.o(i.fputc) for fputc
    printf6.o(i.__0printf$6) refers to printf6.o(i._printf_core) for _printf_core
    printf6.o(i.__0printf$6) refers to fputc.o(i.fputc) for fputc
    printf6.o(i.__0printf$6) refers to stdout.o(.data) for __stdout
    printf6.o(i.__0snprintf$6) refers to printf6.o(i._printf_core) for _printf_core
    printf6.o(i.__0snprintf$6) refers to printf6.o(i._snputc) for _snputc
    printf6.o(i.__0sprintf$6) refers to printf6.o(i._printf_core) for _printf_core
    printf6.o(i.__0sprintf$6) refers to printf6.o(i._sputc) for _sputc
    printf6.o(i.__0vfprintf$6) refers to printf6.o(i._printf_core) for _printf_core
    printf6.o(i.__0vfprintf$6) refers to fputc.o(i.fputc) for fputc
    printf6.o(i.__0vprintf$6) refers to printf6.o(i._printf_core) for _printf_core
    printf6.o(i.__0vprintf$6) refers to fputc.o(i.fputc) for fputc
    printf6.o(i.__0vprintf$6) refers to stdout.o(.data) for __stdout
    printf6.o(i.__0vsnprintf$6) refers to printf6.o(i._printf_core) for _printf_core
    printf6.o(i.__0vsnprintf$6) refers to printf6.o(i._snputc) for _snputc
    printf6.o(i.__0vsprintf$6) refers to printf6.o(i._printf_core) for _printf_core
    printf6.o(i.__0vsprintf$6) refers to printf6.o(i._sputc) for _sputc
    printf6.o(i._printf_core) refers to printf6.o(i._printf_pre_padding) for _printf_pre_padding
    printf6.o(i._printf_core) refers to uidiv.o(.text) for __aeabi_uidivmod
    printf6.o(i._printf_core) refers to printf6.o(i._printf_post_padding) for _printf_post_padding
    printf7.o(i.__0fprintf$7) refers to printf7.o(i._printf_core) for _printf_core
    printf7.o(i.__0fprintf$7) refers to fputc.o(i.fputc) for fputc
    printf7.o(i.__0printf$7) refers to printf7.o(i._printf_core) for _printf_core
    printf7.o(i.__0printf$7) refers to fputc.o(i.fputc) for fputc
    printf7.o(i.__0printf$7) refers to stdout.o(.data) for __stdout
    printf7.o(i.__0snprintf$7) refers to printf7.o(i._printf_core) for _printf_core
    printf7.o(i.__0snprintf$7) refers to printf7.o(i._snputc) for _snputc
    printf7.o(i.__0sprintf$7) refers to printf7.o(i._printf_core) for _printf_core
    printf7.o(i.__0sprintf$7) refers to printf7.o(i._sputc) for _sputc
    printf7.o(i.__0vfprintf$7) refers to printf7.o(i._printf_core) for _printf_core
    printf7.o(i.__0vfprintf$7) refers to fputc.o(i.fputc) for fputc
    printf7.o(i.__0vprintf$7) refers to printf7.o(i._printf_core) for _printf_core
    printf7.o(i.__0vprintf$7) refers to fputc.o(i.fputc) for fputc
    printf7.o(i.__0vprintf$7) refers to stdout.o(.data) for __stdout
    printf7.o(i.__0vsnprintf$7) refers to printf7.o(i._printf_core) for _printf_core
    printf7.o(i.__0vsnprintf$7) refers to printf7.o(i._snputc) for _snputc
    printf7.o(i.__0vsprintf$7) refers to printf7.o(i._printf_core) for _printf_core
    printf7.o(i.__0vsprintf$7) refers to printf7.o(i._sputc) for _sputc
    printf7.o(i._printf_core) refers to printf7.o(i._printf_pre_padding) for _printf_pre_padding
    printf7.o(i._printf_core) refers to uldiv.o(.text) for __aeabi_uldivmod
    printf7.o(i._printf_core) refers to printf7.o(i._printf_post_padding) for _printf_post_padding
    printf8.o(i.__0fprintf$8) refers to printf8.o(i._printf_core) for _printf_core
    printf8.o(i.__0fprintf$8) refers to fputc.o(i.fputc) for fputc
    printf8.o(i.__0printf$8) refers to printf8.o(i._printf_core) for _printf_core
    printf8.o(i.__0printf$8) refers to fputc.o(i.fputc) for fputc
    printf8.o(i.__0printf$8) refers to stdout.o(.data) for __stdout
    printf8.o(i.__0snprintf$8) refers to printf8.o(i._printf_core) for _printf_core
    printf8.o(i.__0snprintf$8) refers to printf8.o(i._snputc) for _snputc
    printf8.o(i.__0sprintf$8) refers to printf8.o(i._printf_core) for _printf_core
    printf8.o(i.__0sprintf$8) refers to printf8.o(i._sputc) for _sputc
    printf8.o(i.__0vfprintf$8) refers to printf8.o(i._printf_core) for _printf_core
    printf8.o(i.__0vfprintf$8) refers to fputc.o(i.fputc) for fputc
    printf8.o(i.__0vprintf$8) refers to printf8.o(i._printf_core) for _printf_core
    printf8.o(i.__0vprintf$8) refers to fputc.o(i.fputc) for fputc
    printf8.o(i.__0vprintf$8) refers to stdout.o(.data) for __stdout
    printf8.o(i.__0vsnprintf$8) refers to printf8.o(i._printf_core) for _printf_core
    printf8.o(i.__0vsnprintf$8) refers to printf8.o(i._snputc) for _snputc
    printf8.o(i.__0vsprintf$8) refers to printf8.o(i._printf_core) for _printf_core
    printf8.o(i.__0vsprintf$8) refers to printf8.o(i._sputc) for _sputc
    printf8.o(i._printf_core) refers to printf8.o(i._printf_pre_padding) for _printf_pre_padding
    printf8.o(i._printf_core) refers to uldiv.o(.text) for __aeabi_uldivmod
    printf8.o(i._printf_core) refers to printf8.o(i._printf_post_padding) for _printf_post_padding
    printfa.o(i.__0fprintf) refers (Special) to iusefp.o(.text) for __I$use$fp
    printfa.o(i.__0fprintf) refers to printfa.o(i._printf_core) for _printf_core
    printfa.o(i.__0fprintf) refers to fputc.o(i.fputc) for fputc
    printfa.o(i.__0printf) refers (Special) to iusefp.o(.text) for __I$use$fp
    printfa.o(i.__0printf) refers to printfa.o(i._printf_core) for _printf_core
    printfa.o(i.__0printf) refers to fputc.o(i.fputc) for fputc
    printfa.o(i.__0printf) refers to stdout.o(.data) for __stdout
    printfa.o(i.__0snprintf) refers (Special) to iusefp.o(.text) for __I$use$fp
    printfa.o(i.__0snprintf) refers to printfa.o(i._printf_core) for _printf_core
    printfa.o(i.__0snprintf) refers to printfa.o(i._snputc) for _snputc
    printfa.o(i.__0sprintf) refers (Special) to iusefp.o(.text) for __I$use$fp
    printfa.o(i.__0sprintf) refers to printfa.o(i._printf_core) for _printf_core
    printfa.o(i.__0sprintf) refers to printfa.o(i._sputc) for _sputc
    printfa.o(i.__0vfprintf) refers (Special) to iusefp.o(.text) for __I$use$fp
    printfa.o(i.__0vfprintf) refers to printfa.o(i._printf_core) for _printf_core
    printfa.o(i.__0vfprintf) refers to fputc.o(i.fputc) for fputc
    printfa.o(i.__0vprintf) refers (Special) to iusefp.o(.text) for __I$use$fp
    printfa.o(i.__0vprintf) refers to printfa.o(i._printf_core) for _printf_core
    printfa.o(i.__0vprintf) refers to fputc.o(i.fputc) for fputc
    printfa.o(i.__0vprintf) refers to stdout.o(.data) for __stdout
    printfa.o(i.__0vsnprintf) refers (Special) to iusefp.o(.text) for __I$use$fp
    printfa.o(i.__0vsnprintf) refers to printfa.o(i._printf_core) for _printf_core
    printfa.o(i.__0vsnprintf) refers to printfa.o(i._snputc) for _snputc
    printfa.o(i.__0vsprintf) refers (Special) to iusefp.o(.text) for __I$use$fp
    printfa.o(i.__0vsprintf) refers to printfa.o(i._printf_core) for _printf_core
    printfa.o(i.__0vsprintf) refers to printfa.o(i._sputc) for _sputc
    printfa.o(i._fp_digits) refers (Special) to iusefp.o(.text) for __I$use$fp
    printfa.o(i._fp_digits) refers to dmul.o(.text) for __aeabi_dmul
    printfa.o(i._fp_digits) refers to ddiv.o(.text) for __aeabi_ddiv
    printfa.o(i._fp_digits) refers to cdrcmple.o(.text) for __aeabi_cdrcmple
    printfa.o(i._fp_digits) refers to dadd.o(.text) for __aeabi_dadd
    printfa.o(i._fp_digits) refers to dfixul.o(.text) for __aeabi_d2ulz
    printfa.o(i._fp_digits) refers to uldiv.o(.text) for __aeabi_uldivmod
    printfa.o(i._printf_core) refers (Special) to iusefp.o(.text) for __I$use$fp
    printfa.o(i._printf_core) refers to printfa.o(i._printf_pre_padding) for _printf_pre_padding
    printfa.o(i._printf_core) refers to uldiv.o(.text) for __aeabi_uldivmod
    printfa.o(i._printf_core) refers to printfa.o(i._printf_post_padding) for _printf_post_padding
    printfa.o(i._printf_core) refers to printfa.o(i._fp_digits) for _fp_digits
    printfa.o(i._printf_core) refers to uidiv.o(.text) for __aeabi_uidivmod
    printfa.o(i._printf_post_padding) refers (Special) to iusefp.o(.text) for __I$use$fp
    printfa.o(i._printf_pre_padding) refers (Special) to iusefp.o(.text) for __I$use$fp
    printfa.o(i._snputc) refers (Special) to iusefp.o(.text) for __I$use$fp
    printfa.o(i._sputc) refers (Special) to iusefp.o(.text) for __I$use$fp
    fadd.o(.text) refers (Special) to iusefp.o(.text) for __I$use$fp
    fadd.o(.text) refers to fepilogue.o(.text) for _float_epilogue
    fmul.o(.text) refers (Special) to iusefp.o(.text) for __I$use$fp
    fdiv.o(.text) refers (Special) to iusefp.o(.text) for __I$use$fp
    fdiv.o(.text) refers to fepilogue.o(.text) for _float_round
    dadd.o(.text) refers (Special) to iusefp.o(.text) for __I$use$fp
    dadd.o(.text) refers to llshl.o(.text) for __aeabi_llsl
    dadd.o(.text) refers to llsshr.o(.text) for __aeabi_lasr
    dadd.o(.text) refers to depilogue.o(.text) for _double_epilogue
    dmul.o(.text) refers (Special) to iusefp.o(.text) for __I$use$fp
    dmul.o(.text) refers to depilogue.o(.text) for _double_epilogue
    ddiv.o(.text) refers (Special) to iusefp.o(.text) for __I$use$fp
    ddiv.o(.text) refers to depilogue.o(.text) for _double_round
    ffltui.o(.text) refers (Special) to iusefp.o(.text) for __I$use$fp
    ffltui.o(.text) refers to fepilogue.o(.text) for _float_epilogue
    dfltui.o(.text) refers (Special) to iusefp.o(.text) for __I$use$fp
    dfltui.o(.text) refers to depilogue.o(.text) for _double_epilogue
    ffixui.o(.text) refers (Special) to iusefp.o(.text) for __I$use$fp
    dfixi.o(.text) refers (Special) to iusefp.o(.text) for __I$use$fp
    dfixi.o(.text) refers to llushr.o(.text) for __aeabi_llsr
    dfixui.o(.text) refers (Special) to iusefp.o(.text) for __I$use$fp
    dfixui.o(.text) refers to llushr.o(.text) for __aeabi_llsr
    f2d.o(.text) refers (Special) to iusefp.o(.text) for __I$use$fp
    cdcmple.o(.text) refers (Special) to iusefp.o(.text) for __I$use$fp
    cdrcmple.o(.text) refers (Special) to iusefp.o(.text) for __I$use$fp
    d2f.o(.text) refers (Special) to iusefp.o(.text) for __I$use$fp
    d2f.o(.text) refers to fepilogue.o(.text) for _float_round
    cfcmple.o(.text) refers (Special) to iusefp.o(.text) for __I$use$fp
    cfrcmple.o(.text) refers (Special) to iusefp.o(.text) for __I$use$fp
    entry2.o(.ARM.Collect$$$$00000001) refers to entry2.o(.ARM.Collect$$$$00002712) for __lit__00000000
    entry2.o(.ARM.Collect$$$$00002712) refers to startup_rvmdk.o(STACK) for __initial_sp
    entry2.o(__vectab_stack_and_reset_area) refers to startup_rvmdk.o(STACK) for __initial_sp
    entry2.o(__vectab_stack_and_reset_area) refers to entry.o(.ARM.Collect$$$$00000000) for __main
    entry5.o(.ARM.Collect$$$$00000004) refers to init.o(.text) for __scatterload
    entry9a.o(.ARM.Collect$$$$0000000B) refers to main.o(i.main) for main
    entry9b.o(.ARM.Collect$$$$0000000C) refers to main.o(i.main) for main
    fputc.o(i.fputc) refers (Special) to iusesemip.o(.text) for __I$use$semihosting$fputc
    fputc.o(i.fputc) refers (Special) to semi.o(.text) for __semihosting_library_function
    uldiv.o(.text) refers to llushr.o(.text) for __aeabi_llsr
    uldiv.o(.text) refers to llshl.o(.text) for __aeabi_llsl
    depilogue.o(.text) refers to llshl.o(.text) for __aeabi_llsl
    depilogue.o(.text) refers to llushr.o(.text) for __aeabi_llsr
    dfixul.o(.text) refers to llushr.o(.text) for __aeabi_llsr
    dfixul.o(.text) refers to llshl.o(.text) for __aeabi_llsl
    init.o(.text) refers to entry5.o(.ARM.Collect$$$$00000004) for __main_after_scatterload


==============================================================================

Removing Unused input sections from the image.

    Removing ssi.o(i.SSIAdvDataPutFrameEnd), (24 bytes).
    Removing ssi.o(i.SSIAdvDataPutFrameEndNonBlocking), (28 bytes).
    Removing ssi.o(i.SSIAdvFrameHoldDisable), (10 bytes).
    Removing ssi.o(i.SSIAdvFrameHoldEnable), (10 bytes).
    Removing ssi.o(i.SSIAdvModeSet), (12 bytes).
    Removing ssi.o(i.SSIBusy), (10 bytes).
    Removing ssi.o(i.SSIClockSourceGet), (8 bytes).
    Removing ssi.o(i.SSIClockSourceSet), (6 bytes).
    Removing ssi.o(i.SSIDMADisable), (8 bytes).
    Removing ssi.o(i.SSIDMAEnable), (8 bytes).
    Removing ssi.o(i.SSIDataGet), (18 bytes).
    Removing ssi.o(i.SSIDataGetNonBlocking), (22 bytes).
    Removing ssi.o(i.SSIDataPut), (16 bytes).
    Removing ssi.o(i.SSIDataPutNonBlocking), (20 bytes).
    Removing ssi.o(i.SSIDisable), (10 bytes).
    Removing ssi.o(i.SSIIntClear), (4 bytes).
    Removing ssi.o(i.SSIIntDisable), (8 bytes).
    Removing ssi.o(i.SSIIntEnable), (8 bytes).
    Removing ssi.o(i.SSIIntRegister), (30 bytes).
    Removing ssi.o(i.SSIIntStatus), (12 bytes).
    Removing ssi.o(i.SSIIntUnregister), (26 bytes).
    Removing ssi.o(i._SSIIntNumberGet), (76 bytes).
    Removing ssi.o(.constdata), (64 bytes).
    Removing sysctl.o(i.SysCtlADCSpeedGet), (16 bytes).
    Removing sysctl.o(i.SysCtlADCSpeedSet), (44 bytes).
    Removing sysctl.o(i.SysCtlAltClkConfig), (12 bytes).
    Removing sysctl.o(i.SysCtlClockFreqSet), (684 bytes).
    Removing sysctl.o(i.SysCtlClockOutConfig), (16 bytes).
    Removing sysctl.o(i.SysCtlDeepSleep), (36 bytes).
    Removing sysctl.o(i.SysCtlDeepSleepClockConfigSet), (160 bytes).
    Removing sysctl.o(i.SysCtlDeepSleepClockSet), (12 bytes).
    Removing sysctl.o(i.SysCtlDeepSleepPowerSet), (12 bytes).
    Removing sysctl.o(i.SysCtlFlashSectorSizeGet), (52 bytes).
    Removing sysctl.o(i.SysCtlFlashSizeGet), (56 bytes).
    Removing sysctl.o(i.SysCtlGPIOAHBDisable), (24 bytes).
    Removing sysctl.o(i.SysCtlGPIOAHBEnable), (24 bytes).
    Removing sysctl.o(i.SysCtlIntClear), (12 bytes).
    Removing sysctl.o(i.SysCtlIntDisable), (16 bytes).
    Removing sysctl.o(i.SysCtlIntEnable), (16 bytes).
    Removing sysctl.o(i.SysCtlIntRegister), (20 bytes).
    Removing sysctl.o(i.SysCtlIntStatus), (20 bytes).
    Removing sysctl.o(i.SysCtlIntUnregister), (16 bytes).
    Removing sysctl.o(i.SysCtlLDODeepSleepGet), (12 bytes).
    Removing sysctl.o(i.SysCtlLDODeepSleepSet), (12 bytes).
    Removing sysctl.o(i.SysCtlLDOSleepGet), (12 bytes).
    Removing sysctl.o(i.SysCtlLDOSleepSet), (12 bytes).
    Removing sysctl.o(i.SysCtlMOSCConfigSet), (12 bytes).
    Removing sysctl.o(i.SysCtlNMIClear), (16 bytes).
    Removing sysctl.o(i.SysCtlNMIStatus), (12 bytes).
    Removing sysctl.o(i.SysCtlPIOSCCalibrate), (92 bytes).
    Removing sysctl.o(i.SysCtlPWMClockGet), (28 bytes).
    Removing sysctl.o(i.SysCtlPWMClockSet), (20 bytes).
    Removing sysctl.o(i.SysCtlPeripheralClockGating), (96 bytes).
    Removing sysctl.o(i.SysCtlPeripheralDeepSleepDisable), (52 bytes).
    Removing sysctl.o(i.SysCtlPeripheralDeepSleepEnable), (52 bytes).
    Removing sysctl.o(i.SysCtlPeripheralDisable), (52 bytes).
    Removing sysctl.o(i.SysCtlPeripheralPowerOff), (52 bytes).
    Removing sysctl.o(i.SysCtlPeripheralPowerOn), (52 bytes).
    Removing sysctl.o(i.SysCtlPeripheralPresent), (56 bytes).
    Removing sysctl.o(i.SysCtlPeripheralReady), (56 bytes).
    Removing sysctl.o(i.SysCtlPeripheralReset), (112 bytes).
    Removing sysctl.o(i.SysCtlPeripheralSleepDisable), (52 bytes).
    Removing sysctl.o(i.SysCtlPeripheralSleepEnable), (52 bytes).
    Removing sysctl.o(i.SysCtlReset), (20 bytes).
    Removing sysctl.o(i.SysCtlResetBehaviorGet), (12 bytes).
    Removing sysctl.o(i.SysCtlResetBehaviorSet), (12 bytes).
    Removing sysctl.o(i.SysCtlResetCauseClear), (16 bytes).
    Removing sysctl.o(i.SysCtlResetCauseGet), (12 bytes).
    Removing sysctl.o(i.SysCtlSRAMSizeGet), (16 bytes).
    Removing sysctl.o(i.SysCtlSleep), (8 bytes).
    Removing sysctl.o(i.SysCtlSleepPowerSet), (12 bytes).
    Removing sysctl.o(i.SysCtlUSBPLLDisable), (20 bytes).
    Removing sysctl.o(i.SysCtlUSBPLLEnable), (20 bytes).
    Removing sysctl.o(i.SysCtlVoltageEventClear), (16 bytes).
    Removing sysctl.o(i.SysCtlVoltageEventConfig), (12 bytes).
    Removing sysctl.o(i.SysCtlVoltageEventStatus), (12 bytes).
    Removing sysctl.o(i._SysCtlFrequencyGet), (100 bytes).
    Removing sysctl.o(i._SysCtlMemTimingGet), (40 bytes).
    Removing sysexc.o(i.SysExcIntClear), (12 bytes).
    Removing sysexc.o(i.SysExcIntDisable), (16 bytes).
    Removing sysexc.o(i.SysExcIntEnable), (16 bytes).
    Removing sysexc.o(i.SysExcIntRegister), (26 bytes).
    Removing sysexc.o(i.SysExcIntStatus), (20 bytes).
    Removing sysexc.o(i.SysExcIntUnregister), (22 bytes).
    Removing sysexc.o(i._SysExcIntNumberGet), (56 bytes).
    Removing systick.o(i.SysTickDisable), (18 bytes).
    Removing systick.o(i.SysTickIntDisable), (18 bytes).
    Removing systick.o(i.SysTickIntRegister), (30 bytes).
    Removing systick.o(i.SysTickIntUnregister), (26 bytes).
    Removing systick.o(i.SysTickPeriodGet), (10 bytes).
    Removing systick.o(i.SysTickValueGet), (8 bytes).
    Removing timer.o(i.TimerADCEventGet), (6 bytes).
    Removing timer.o(i.TimerADCEventSet), (4 bytes).
    Removing timer.o(i.TimerClockSourceGet), (8 bytes).
    Removing timer.o(i.TimerClockSourceSet), (6 bytes).
    Removing timer.o(i.TimerControlLevel), (22 bytes).
    Removing timer.o(i.TimerControlTrigger), (72 bytes).
    Removing timer.o(i.TimerControlWaitOnTrigger), (52 bytes).
    Removing timer.o(i.TimerDMAEventGet), (6 bytes).
    Removing timer.o(i.TimerDMAEventSet), (4 bytes).
    Removing timer.o(i.TimerIntDisable), (8 bytes).
    Removing timer.o(i.TimerIntRegister), (38 bytes).
    Removing timer.o(i.TimerIntUnregister), (30 bytes).
    Removing timer.o(i.TimerLoadGet), (14 bytes).
    Removing timer.o(i.TimerLoadGet64), (26 bytes).
    Removing timer.o(i.TimerLoadSet64), (6 bytes).
    Removing timer.o(i.TimerMatchGet), (14 bytes).
    Removing timer.o(i.TimerMatchGet64), (26 bytes).
    Removing timer.o(i.TimerMatchSet64), (6 bytes).
    Removing timer.o(i.TimerPrescaleGet), (14 bytes).
    Removing timer.o(i.TimerPrescaleMatchGet), (14 bytes).
    Removing timer.o(i.TimerPrescaleMatchSet), (16 bytes).
    Removing timer.o(i.TimerPrescaleSet), (16 bytes).
    Removing timer.o(i.TimerRTCDisable), (10 bytes).
    Removing timer.o(i.TimerRTCEnable), (10 bytes).
    Removing timer.o(i.TimerSynchronize), (4 bytes).
    Removing timer.o(i.TimerValueGet64), (26 bytes).
    Removing timer.o(i._TimerIntNumberGet), (88 bytes).
    Removing timer.o(.constdata), (160 bytes).
    Removing uart.o(i.UART9BitAddrSend), (44 bytes).
    Removing uart.o(i.UART9BitAddrSet), (10 bytes).
    Removing uart.o(i.UART9BitDisable), (14 bytes).
    Removing uart.o(i.UART9BitEnable), (14 bytes).
    Removing uart.o(i.UARTBreakCtl), (20 bytes).
    Removing uart.o(i.UARTBusy), (10 bytes).
    Removing uart.o(i.UARTCharGetNonBlocking), (20 bytes).
    Removing uart.o(i.UARTCharPutNonBlocking), (20 bytes).
    Removing uart.o(i.UARTClockSourceGet), (8 bytes).
    Removing uart.o(i.UARTClockSourceSet), (6 bytes).
    Removing uart.o(i.UARTConfigGetExpClk), (44 bytes).
    Removing uart.o(i.UARTDMADisable), (8 bytes).
    Removing uart.o(i.UARTDMAEnable), (8 bytes).
    Removing uart.o(i.UARTDisableSIR), (10 bytes).
    Removing uart.o(i.UARTEnableSIR), (22 bytes).
    Removing uart.o(i.UARTFIFODisable), (10 bytes).
    Removing uart.o(i.UARTFIFOEnable), (10 bytes).
    Removing uart.o(i.UARTFIFOLevelGet), (18 bytes).
    Removing uart.o(i.UARTFlowControlGet), (10 bytes).
    Removing uart.o(i.UARTFlowControlSet), (12 bytes).
    Removing uart.o(i.UARTIntDisable), (8 bytes).
    Removing uart.o(i.UARTIntRegister), (30 bytes).
    Removing uart.o(i.UARTIntUnregister), (26 bytes).
    Removing uart.o(i.UARTModemControlClear), (12 bytes).
    Removing uart.o(i.UARTModemControlGet), (10 bytes).
    Removing uart.o(i.UARTModemControlSet), (12 bytes).
    Removing uart.o(i.UARTModemStatusGet), (12 bytes).
    Removing uart.o(i.UARTParityModeGet), (10 bytes).
    Removing uart.o(i.UARTParityModeSet), (12 bytes).
    Removing uart.o(i.UARTRxErrorClear), (6 bytes).
    Removing uart.o(i.UARTRxErrorGet), (10 bytes).
    Removing uart.o(i.UARTSmartCardDisable), (10 bytes).
    Removing uart.o(i.UARTSmartCardEnable), (22 bytes).
    Removing uart.o(i.UARTSpaceAvail), (12 bytes).
    Removing uart.o(i.UARTTxIntModeGet), (10 bytes).
    Removing uart.o(i.UARTTxIntModeSet), (12 bytes).
    Removing uart.o(i._UARTIntNumberGet), (76 bytes).
    Removing uart.o(.constdata), (128 bytes).
    Removing udma.o(i.uDMAChannelAssign), (40 bytes).
    Removing udma.o(i.uDMAChannelAttributeDisable), (68 bytes).
    Removing udma.o(i.uDMAChannelAttributeEnable), (68 bytes).
    Removing udma.o(i.uDMAChannelAttributeGet), (80 bytes).
    Removing udma.o(i.uDMAChannelControlSet), (40 bytes).
    Removing udma.o(i.uDMAChannelDisable), (20 bytes).
    Removing udma.o(i.uDMAChannelEnable), (20 bytes).
    Removing udma.o(i.uDMAChannelIsEnabled), (32 bytes).
    Removing udma.o(i.uDMAChannelModeGet), (48 bytes).
    Removing udma.o(i.uDMAChannelRequest), (20 bytes).
    Removing udma.o(i.uDMAChannelScatterGatherSet), (92 bytes).
    Removing udma.o(i.uDMAChannelSelectDefault), (16 bytes).
    Removing udma.o(i.uDMAChannelSelectSecondary), (16 bytes).
    Removing udma.o(i.uDMAChannelSizeGet), (44 bytes).
    Removing udma.o(i.uDMAChannelTransferSet), (176 bytes).
    Removing udma.o(i.uDMAControlAlternateBaseGet), (12 bytes).
    Removing udma.o(i.uDMAControlBaseGet), (12 bytes).
    Removing udma.o(i.uDMAControlBaseSet), (12 bytes).
    Removing udma.o(i.uDMADisable), (12 bytes).
    Removing udma.o(i.uDMAEnable), (12 bytes).
    Removing udma.o(i.uDMAErrorStatusClear), (12 bytes).
    Removing udma.o(i.uDMAErrorStatusGet), (12 bytes).
    Removing udma.o(i.uDMAIntClear), (12 bytes).
    Removing udma.o(i.uDMAIntRegister), (22 bytes).
    Removing udma.o(i.uDMAIntStatus), (12 bytes).
    Removing udma.o(i.uDMAIntUnregister), (18 bytes).
    Removing watchdog.o(i.WatchdogIntEnable), (10 bytes).
    Removing watchdog.o(i.WatchdogIntRegister), (22 bytes).
    Removing watchdog.o(i.WatchdogIntStatus), (12 bytes).
    Removing watchdog.o(i.WatchdogIntTypeSet), (12 bytes).
    Removing watchdog.o(i.WatchdogIntUnregister), (18 bytes).
    Removing watchdog.o(i.WatchdogLock), (8 bytes).
    Removing watchdog.o(i.WatchdogLockState), (16 bytes).
    Removing watchdog.o(i.WatchdogResetDisable), (10 bytes).
    Removing watchdog.o(i.WatchdogRunning), (10 bytes).
    Removing watchdog.o(i.WatchdogStallDisable), (14 bytes).
    Removing watchdog.o(i.WatchdogValueGet), (6 bytes).
    Removing can.o(i.CANBitTimingGet), (48 bytes).
    Removing can.o(i.CANBitTimingSet), (88 bytes).
    Removing can.o(i.CANIntDisable), (8 bytes).
    Removing can.o(i.CANIntRegister), (30 bytes).
    Removing can.o(i.CANIntUnregister), (26 bytes).
    Removing can.o(i.CANMessageClear), (30 bytes).
    Removing can.o(i.CANMessageGet), (382 bytes).
    Removing can.o(i.CANMessageSet), (384 bytes).
    Removing can.o(i.CANRetryGet), (18 bytes).
    Removing can.o(i.CANRetrySet), (20 bytes).
    Removing can.o(i._CANDataRegRead), (36 bytes).
    Removing can.o(i._CANDataRegWrite), (36 bytes).
    Removing can.o(i._CANIntNumberGet), (96 bytes).
    Removing eeprom.o(i.EEPROMBlockCountGet), (16 bytes).
    Removing eeprom.o(i.EEPROMBlockHide), (16 bytes).
    Removing eeprom.o(i.EEPROMBlockLock), (24 bytes).
    Removing eeprom.o(i.EEPROMBlockPasswordSet), (52 bytes).
    Removing eeprom.o(i.EEPROMBlockProtectGet), (16 bytes).
    Removing eeprom.o(i.EEPROMBlockProtectSet), (32 bytes).
    Removing eeprom.o(i.EEPROMBlockUnlock), (48 bytes).
    Removing eeprom.o(i.EEPROMInit), (68 bytes).
    Removing eeprom.o(i.EEPROMIntClear), (56 bytes).
    Removing eeprom.o(i.EEPROMIntDisable), (36 bytes).
    Removing eeprom.o(i.EEPROMIntEnable), (36 bytes).
    Removing eeprom.o(i.EEPROMIntStatus), (48 bytes).
    Removing eeprom.o(i.EEPROMMassErase), (88 bytes).
    Removing eeprom.o(i.EEPROMProgram), (200 bytes).
    Removing eeprom.o(i.EEPROMProgramNonBlocking), (72 bytes).
    Removing eeprom.o(i.EEPROMRead), (56 bytes).
    Removing eeprom.o(i.EEPROMSizeGet), (16 bytes).
    Removing eeprom.o(i.EEPROMStatusGet), (12 bytes).
    Removing eeprom.o(i._EEPROMSectorMaskClear), (56 bytes).
    Removing eeprom.o(i._EEPROMSectorMaskSet), (64 bytes).
    Removing eeprom.o(i._EEPROMWaitForDone), (20 bytes).
    Removing flash.o(i.FlashIntClear), (12 bytes).
    Removing flash.o(i.FlashIntDisable), (16 bytes).
    Removing flash.o(i.FlashIntEnable), (16 bytes).
    Removing flash.o(i.FlashIntRegister), (20 bytes).
    Removing flash.o(i.FlashIntStatus), (20 bytes).
    Removing flash.o(i.FlashIntUnregister), (16 bytes).
    Removing flash.o(i.FlashProgram), (112 bytes).
    Removing flash.o(i.FlashProtectGet), (88 bytes).
    Removing flash.o(i.FlashProtectSave), (48 bytes).
    Removing flash.o(i.FlashProtectSet), (144 bytes).
    Removing flash.o(i.FlashUserGet), (28 bytes).
    Removing flash.o(i.FlashUserSave), (64 bytes).
    Removing flash.o(i.FlashUserSet), (24 bytes).
    Removing flash.o(.constdata), (128 bytes).
    Removing fpu.o(i.FPUDisable), (20 bytes).
    Removing fpu.o(i.FPUEnable), (20 bytes).
    Removing fpu.o(i.FPUFlushToZeroModeSet), (20 bytes).
    Removing fpu.o(i.FPUHalfPrecisionModeSet), (20 bytes).
    Removing fpu.o(i.FPULazyStackingEnable), (20 bytes).
    Removing fpu.o(i.FPUNaNModeSet), (20 bytes).
    Removing fpu.o(i.FPURoundingModeSet), (20 bytes).
    Removing fpu.o(i.FPUStackingDisable), (20 bytes).
    Removing fpu.o(i.FPUStackingEnable), (24 bytes).
    Removing gpio.o(i.GPIOADCTriggerDisable), (12 bytes).
    Removing gpio.o(i.GPIOADCTriggerEnable), (12 bytes).
    Removing gpio.o(i.GPIODMATriggerDisable), (12 bytes).
    Removing gpio.o(i.GPIODMATriggerEnable), (12 bytes).
    Removing gpio.o(i.GPIODirModeGet), (46 bytes).
    Removing gpio.o(i.GPIOIntEnable), (12 bytes).
    Removing gpio.o(i.GPIOIntRegister), (30 bytes).
    Removing gpio.o(i.GPIOIntTypeGet), (84 bytes).
    Removing gpio.o(i.GPIOIntUnregister), (26 bytes).
    Removing gpio.o(i.GPIOPadConfigGet), (206 bytes).
    Removing gpio.o(i.GPIOPinTypeADC), (30 bytes).
    Removing gpio.o(i.GPIOPinTypeCIR), (30 bytes).
    Removing gpio.o(i.GPIOPinTypeComparator), (30 bytes).
    Removing gpio.o(i.GPIOPinTypeEPI), (30 bytes).
    Removing gpio.o(i.GPIOPinTypeEthernetLED), (30 bytes).
    Removing gpio.o(i.GPIOPinTypeEthernetMII), (30 bytes).
    Removing gpio.o(i.GPIOPinTypeFan), (30 bytes).
    Removing gpio.o(i.GPIOPinTypeGPIOOutputOD), (30 bytes).
    Removing gpio.o(i.GPIOPinTypeKBColumn), (30 bytes).
    Removing gpio.o(i.GPIOPinTypeKBRow), (30 bytes).
    Removing gpio.o(i.GPIOPinTypeLCD), (30 bytes).
    Removing gpio.o(i.GPIOPinTypeLEDSeq), (30 bytes).
    Removing gpio.o(i.GPIOPinTypeLPC), (30 bytes).
    Removing gpio.o(i.GPIOPinTypePECIRx), (30 bytes).
    Removing gpio.o(i.GPIOPinTypePECITx), (30 bytes).
    Removing gpio.o(i.GPIOPinTypePWM), (30 bytes).
    Removing gpio.o(i.GPIOPinTypeQEI), (30 bytes).
    Removing gpio.o(i.GPIOPinTypeUSBAnalog), (30 bytes).
    Removing gpio.o(i.GPIOPinTypeUSBDigital), (30 bytes).
    Removing gpio.o(i.GPIOPinTypeWakeHigh), (32 bytes).
    Removing gpio.o(i.GPIOPinTypeWakeLow), (32 bytes).
    Removing gpio.o(i.GPIOPinWakeStatus), (8 bytes).
    Removing gpio.o(i._GPIOIntNumberGet), (76 bytes).
    Removing interrupt.o(i.IntDisable), (116 bytes).
    Removing interrupt.o(i.IntIsEnabled), (108 bytes).
    Removing interrupt.o(i.IntPendClear), (76 bytes).
    Removing interrupt.o(i.IntPendSet), (96 bytes).
    Removing interrupt.o(i.IntPriorityGet), (28 bytes).
    Removing interrupt.o(i.IntPriorityGroupingGet), (44 bytes).
    Removing interrupt.o(i.IntPriorityGroupingSet), (28 bytes).
    Removing interrupt.o(i.IntPriorityMaskGet), (8 bytes).
    Removing interrupt.o(i.IntPriorityMaskSet), (12 bytes).
    Removing interrupt.o(i.IntRegister), (60 bytes).
    Removing interrupt.o(i.IntTrigger), (16 bytes).
    Removing interrupt.o(i.IntUnregister), (20 bytes).
    Removing interrupt.o(i._IntDefaultHandler), (4 bytes).
    Removing interrupt.o(vtable), (620 bytes).
    Removing mpu.o(i.MPUDisable), (20 bytes).
    Removing mpu.o(i.MPUEnable), (16 bytes).
    Removing mpu.o(i.MPUIntRegister), (20 bytes).
    Removing mpu.o(i.MPUIntUnregister), (16 bytes).
    Removing mpu.o(i.MPURegionCountGet), (16 bytes).
    Removing mpu.o(i.MPURegionDisable), (28 bytes).
    Removing mpu.o(i.MPURegionEnable), (28 bytes).
    Removing mpu.o(i.MPURegionGet), (28 bytes).
    Removing mpu.o(i.MPURegionSet), (32 bytes).
    Removing adc.o(i.ADCBusy), (10 bytes).
    Removing adc.o(i.ADCComparatorConfigure), (10 bytes).
    Removing adc.o(i.ADCComparatorIntClear), (4 bytes).
    Removing adc.o(i.ADCComparatorIntDisable), (14 bytes).
    Removing adc.o(i.ADCComparatorIntEnable), (14 bytes).
    Removing adc.o(i.ADCComparatorIntStatus), (6 bytes).
    Removing adc.o(i.ADCComparatorRegionSet), (16 bytes).
    Removing adc.o(i.ADCComparatorReset), (34 bytes).
    Removing adc.o(i.ADCHardwareOversampleConfigure), (18 bytes).
    Removing adc.o(i.ADCIntClearEx), (8 bytes).
    Removing adc.o(i.ADCIntDisable), (12 bytes).
    Removing adc.o(i.ADCIntDisableEx), (8 bytes).
    Removing adc.o(i.ADCIntEnable), (18 bytes).
    Removing adc.o(i.ADCIntEnableEx), (8 bytes).
    Removing adc.o(i.ADCIntRegister), (38 bytes).
    Removing adc.o(i.ADCIntStatus), (54 bytes).
    Removing adc.o(i.ADCIntStatusEx), (22 bytes).
    Removing adc.o(i.ADCIntUnregister), (30 bytes).
    Removing adc.o(i.ADCPhaseDelayGet), (6 bytes).
    Removing adc.o(i.ADCPhaseDelaySet), (4 bytes).
    Removing adc.o(i.ADCProcessorTrigger), (24 bytes).
    Removing adc.o(i.ADCReferenceGet), (10 bytes).
    Removing adc.o(i.ADCReferenceSet), (12 bytes).
    Removing adc.o(i.ADCSequenceConfigure), (44 bytes).
    Removing adc.o(i.ADCSequenceDMADisable), (14 bytes).
    Removing adc.o(i.ADCSequenceDMAEnable), (14 bytes).
    Removing adc.o(i.ADCSequenceDisable), (12 bytes).
    Removing adc.o(i.ADCSequenceEnable), (12 bytes).
    Removing adc.o(i.ADCSequenceOverflow), (12 bytes).
    Removing adc.o(i.ADCSequenceOverflowClear), (8 bytes).
    Removing adc.o(i.ADCSequenceStepConfigure), (118 bytes).
    Removing adc.o(i.ADCSequenceUnderflow), (12 bytes).
    Removing adc.o(i.ADCSequenceUnderflowClear), (8 bytes).
    Removing adc.o(i.ADCSoftwareOversampleConfigure), (28 bytes).
    Removing adc.o(i.ADCSoftwareOversampleDataGet), (60 bytes).
    Removing adc.o(i.ADCSoftwareOversampleStepConfigure), (116 bytes).
    Removing adc.o(i._ADCIntNumberGet), (96 bytes).
    Removing adc.o(.data), (3 bytes).
    Removing startup_rvmdk.o(HEAP), (0 bytes).
    Removing startup_rvmdk.o(.text), (0 bytes).
    Removing bitvari.o(.bss), (24 bytes).
    Removing can_api.o(i.CAN_LDATA_RX_Pr), (296 bytes).
    Removing can_api.o(i.CAN_LDATA_TX_Pr), (244 bytes).
    Removing can_api.o(i.Proc_CAN1_OvTm), (48 bytes).
    Removing can_api.o(i.Proc_CAN1_SDATA_OBUF), (112 bytes).
    Removing can_api.o(i.Proc_CAN1_STS), (84 bytes).
    Removing can_api.o(i.Proc_CAN_OvTm), (136 bytes).
    Removing can_api.o(i.Proc_CAN_STS), (100 bytes).
    Removing can_api.o(i.Proc_CNA1_SDATA_IBUF), (96 bytes).
    Removing can_api.o(i.Proc_LDATA_MSG_IBUF), (260 bytes).
    Removing can_api.o(i.Proc_Mst_Check), (128 bytes).
    Removing can_api.o(i.Proc_SDATA_IBUF), (1044 bytes).
    Removing can_api.o(i.Proc_SDATA_OBUF), (156 bytes).
    Removing can_api.o(i.SDATA_MSG_OHead_ADD_ONE), (56 bytes).
    Removing can_api.o(i.SLV_REQ_RETX), (64 bytes).
    Removing can_api.o(i.SLV_REQ_TX), (92 bytes).
    Removing can_api.o(.constdata), (336 bytes).
    Removing clk_err.o(i.Act_Freq_to_Set), (268 bytes).
    Removing clk_err.o(i.Check_PLL), (204 bytes).
    Removing clk_err.o(i.Check_Std_Clk), (92 bytes).
    Removing clk_err.o(i.Clk_No_Stable), (116 bytes).
    Removing clk_err.o(i.IO_INT_REEN), (504 bytes).
    Removing clk_err.o(i.Key_Proc), (124 bytes).
    Removing clk_err.o(i.MEA_CLK_FREQ), (1580 bytes).
    Removing clk_err.o(i.MEA_XUL_TIME), (656 bytes).
    Removing clk_err.o(i.No_BSZMC_Pr), (160 bytes).
    Removing clk_err.o(i.No_SZMC_Pr), (160 bytes).
    Removing clk_err.o(i.PULSE_CTL_Pro), (1748 bytes).
    Removing clk_err.o(i.Proc_AUTO_PLS), (208 bytes).
    Removing clk_err.o(i.Proc_Clk_OvTm), (240 bytes).
    Removing clk_err.o(i.Proc_HC165), (924 bytes).
    Removing clk_err.o(i.Proc_LUNCI_PLS), (400 bytes).
    Removing clk_err.o(i.Proc_MFuction_PLS), (1132 bytes).
    Removing clk_err.o(i.READ_HC165_DATA), (148 bytes).
    Removing clk_err.o(i.WRITE_CD4094_DATA), (2 bytes).
    Removing disp.o(i.Copy_Str_To_DSBUF), (188 bytes).
    Removing disp.o(i.Disp_Data), (172 bytes).
    Removing disp.o(i.Disp_Long_Data), (140 bytes).
    Removing disp.o(i.Disp_Time_Pr), (44 bytes).
    Removing disp.o(i.Reset_HD7279), (72 bytes).
    Removing disp.o(i.SSIDataLen), (24 bytes).
    Removing disp.o(.constdata), (33 bytes).
    Removing init.o(i.Init_Adc), (104 bytes).
    Removing init.o(i.Solid_Save_Tab), (168 bytes).
    Removing interrupt_api.o(i.IntDefaultHandler), (4 bytes).
    Removing uart_api.o(i.BOOT_INT_DIS), (140 bytes).
    Removing uart_api.o(i.Proc_Com_IBuf), (288 bytes).
    Removing uart_api.o(i.Proc_Com_OBuf), (252 bytes).
    Removing uart_api.o(i.Proc_Com_Rx_OvTm), (96 bytes).
    Removing eng_err.o(i.BEEP_EN_Pr), (36 bytes).
    Removing eng_err.o(i.CATCH_HB_MODE_Pr), (256 bytes).
    Removing eng_err.o(i.CATCH_HB_Pr), (148 bytes).
    Removing eng_err.o(i.CYCLE_PLS_SEL_Pr), (68 bytes).
    Removing eng_err.o(i.Check_Std_Eclk), (104 bytes).
    Removing eng_err.o(i.Chg_U_In_Pr), (60 bytes).
    Removing eng_err.o(i.Cnt_ENG_Pr), (176 bytes).
    Removing eng_err.o(i.DIVIDE_COEF_Pr), (332 bytes).
    Removing eng_err.o(i.ELEC_HEAD_RESET_Pr), (64 bytes).
    Removing eng_err.o(i.ELEC_PLS_TYPE_Pr), (108 bytes).
    Removing eng_err.o(i.ENG_CLR_Pr), (200 bytes).
    Removing eng_err.o(i.ENG_ERR_MODE_Pr), (744 bytes).
    Removing eng_err.o(i.ERR_CLR_Pr), (168 bytes).
    Removing eng_err.o(i.ESwitch_Control_Pr), (192 bytes).
    Removing eng_err.o(i.GDGZ_MODE_Pr), (20 bytes).
    Removing eng_err.o(i.GDT_RST_Pr), (72 bytes).
    Removing eng_err.o(i.I_In_Out_Pr), (124 bytes).
    Removing eng_err.o(i.I_JDQ_Time_Pr), (276 bytes).
    Removing eng_err.o(i.I_Open_Tst_Pr), (2 bytes).
    Removing eng_err.o(i.JTAG_EN_Pr), (48 bytes).
    Removing eng_err.o(i.LED_TST), (36 bytes).
    Removing eng_err.o(i.Login_Sy_Sts), (112 bytes).
    Removing eng_err.o(i.Login_Verify_Sts), (124 bytes).
    Removing eng_err.o(i.MEASURE_ENG_MODE_Pr), (228 bytes).
    Removing eng_err.o(i.MEA_CST_MODE_Pr), (228 bytes).
    Removing eng_err.o(i.MEA_ENG_DUTY_MODE_Pr), (636 bytes).
    Removing eng_err.o(i.MEA_MTR_CST_Pr), (68 bytes).
    Removing eng_err.o(i.MEA_PLS_CYCLE_Pr), (60 bytes).
    Removing eng_err.o(i.MEA_POWER_D_MODE_Pr), (208 bytes).
    Removing eng_err.o(i.MTR_PLUG_MODE_Pr), (260 bytes).
    Removing eng_err.o(i.MTR_PLUG_Pr), (180 bytes).
    Removing eng_err.o(i.NYSY_MODE_Pr), (264 bytes).
    Removing eng_err.o(i.No_BZENGMC_Pr), (168 bytes).
    Removing eng_err.o(i.Ny_Time_End_Pr), (2 bytes).
    Removing eng_err.o(i.PANZHUAN_ERR_MODE_Pr), (468 bytes).
    Removing eng_err.o(i.PLS_SEL_Pr), (44 bytes).
    Removing eng_err.o(i.PLS_ZZ_Pr), (68 bytes).
    Removing eng_err.o(i.PULSE_ZZ_MODE_Pr), (380 bytes).
    Removing eng_err.o(i.PZ_ERR_Pr), (60 bytes).
    Removing eng_err.o(i.Power_Test_Pr), (344 bytes).
    Removing eng_err.o(i.Proc_ADC_Data), (200 bytes).
    Removing eng_err.o(i.Proc_ADC_Timer), (108 bytes).
    Removing eng_err.o(i.Proc_MTYPE), (2 bytes).
    Removing eng_err.o(i.RST_IJDQ), (120 bytes).
    Removing eng_err.o(i.RST_LED), (48 bytes).
    Removing eng_err.o(i.ReSet_ZZ_PLS_Pr), (68 bytes).
    Removing eng_err.o(i.ReStart_Mea_Err), (144 bytes).
    Removing eng_err.o(i.SEL_ELEPLS_IN), (2 bytes).
    Removing eng_err.o(i.START_STOP_MODE_Pr), (196 bytes).
    Removing eng_err.o(i.STS_Light_Pr), (44 bytes).
    Removing eng_err.o(i.SY_END), (120 bytes).
    Removing eng_err.o(i.Send_Data), (180 bytes).
    Removing eng_err.o(i.Set_ADCONV), (76 bytes).
    Removing eng_err.o(i.Set_CHKP), (2 bytes).
    Removing eng_err.o(i.Set_COM0SEL), (2 bytes).
    Removing eng_err.o(i.Set_COM1SEL), (2 bytes).
    Removing eng_err.o(i.Set_Clk_Ctl_Pr), (140 bytes).
    Removing eng_err.o(i.Set_Clk_Freq_Pr), (52 bytes).
    Removing eng_err.o(i.Set_Clk_Time_Pr), (44 bytes).
    Removing eng_err.o(i.Set_DOORCTL), (92 bytes).
    Removing eng_err.o(i.Set_DXTZ), (152 bytes).
    Removing eng_err.o(i.Set_Disp_Mode), (112 bytes).
    Removing eng_err.o(i.Set_EQPMOD), (28 bytes).
    Removing eng_err.o(i.Set_Elec_Pls), (92 bytes).
    Removing eng_err.o(i.Set_Light), (2 bytes).
    Removing eng_err.o(i.Set_MBJEN), (80 bytes).
    Removing eng_err.o(i.Set_MEAPN), (2 bytes).
    Removing eng_err.o(i.Set_MFCLK_Mode), (36 bytes).
    Removing eng_err.o(i.Set_MFCLK_Type), (80 bytes).
    Removing eng_err.o(i.Set_MTR_LCT_Com), (156 bytes).
    Removing eng_err.o(i.Set_MTYPE), (60 bytes).
    Removing eng_err.o(i.Set_Master_Start), (12 bytes).
    Removing eng_err.o(i.Set_Min_CST_Pr), (52 bytes).
    Removing eng_err.o(i.Set_Mtr_Cst_Pr), (260 bytes).
    Removing eng_err.o(i.Set_NPRS485), (60 bytes).
    Removing eng_err.o(i.Set_N_Pr), (120 bytes).
    Removing eng_err.o(i.Set_PLSHC), (96 bytes).
    Removing eng_err.o(i.Set_PLS_QUAD), (64 bytes).
    Removing eng_err.o(i.Set_PULRUN), (672 bytes).
    Removing eng_err.o(i.Set_PULSET), (1228 bytes).
    Removing eng_err.o(i.Set_Pzbz_Pr), (116 bytes).
    Removing eng_err.o(i.Set_Pzzs_Pr), (80 bytes).
    Removing eng_err.o(i.Set_RSTS), (64 bytes).
    Removing eng_err.o(i.Set_ReTx_LctD), (52 bytes).
    Removing eng_err.o(i.Set_ReTx_MtrD), (52 bytes).
    Removing eng_err.o(i.Set_Read_Ver), (76 bytes).
    Removing eng_err.o(i.Set_Red485), (2 bytes).
    Removing eng_err.o(i.Set_Reload_LctD), (52 bytes).
    Removing eng_err.o(i.Set_Reload_MtrD), (52 bytes).
    Removing eng_err.o(i.Set_SLEDN), (56 bytes).
    Removing eng_err.o(i.Set_STD_CST_Pr), (72 bytes).
    Removing eng_err.o(i.Set_Sy), (40 bytes).
    Removing eng_err.o(i.Set_Sy_Ph), (28 bytes).
    Removing eng_err.o(i.Set_TS), (136 bytes).
    Removing eng_err.o(i.Set_TTAB), (64 bytes).
    Removing eng_err.o(i.Set_TZEN), (80 bytes).
    Removing eng_err.o(i.Set_Time_Base), (36 bytes).
    Removing eng_err.o(i.Set_UCLOP), (112 bytes).
    Removing eng_err.o(i.Set_VSET), (2 bytes).
    Removing eng_err.o(i.Set_XuL_Ctl_Pr), (140 bytes).
    Removing eng_err.o(i.Set_XuL_Pls_Num), (80 bytes).
    Removing eng_err.o(i.Set_YKPULSE), (72 bytes).
    Removing eng_err.o(i.Set_YKSET), (96 bytes).
    Removing eng_err.o(i.Set_YXCTL), (44 bytes).
    Removing eng_err.o(i.Set_ZBLBIN), (2 bytes).
    Removing eng_err.o(i.Set_ZBTST), (156 bytes).
    Removing eng_err.o(i.Set_ZZ_Ds), (236 bytes).
    Removing eng_err.o(i.Set_ZZ_PLS_Pr), (36 bytes).
    Removing eng_err.o(i.Start_Ny_Pr), (140 bytes).
    Removing eng_err.o(i.Start_Stop_Pr), (120 bytes).
    Removing eng_err.o(i.Start_Sy_Pr), (40 bytes).
    Removing eng_err.o(i.UJDQ_Close_ESwitch_Open), (22 bytes).
    Removing eng_err.o(i.UJDQ_Control_Pr), (164 bytes).
    Removing eng_err.o(i.UJDQ_ESwitch_Time_Pr), (280 bytes).
    Removing eng_err.o(i.UJDQ_Open_ESwitch_Close), (52 bytes).
    Removing eng_err.o(i.UJDQ_Open_ESwitch_Open), (52 bytes).
    Removing eng_err.o(i.Uin_Iin_Pr), (56 bytes).
    Removing eng_err.o(i.VERIFY_READY_MODE_Pr), (96 bytes).
    Removing eng_err.o(i.VERIFY_START_MODE_Pr), (308 bytes).
    Removing eng_err.o(i.VOLTAGE_DOWN_MODE_Pr), (636 bytes).
    Removing eng_err.o(i.Verify_Start_Pr), (68 bytes).
    Removing eng_err.o(i.WIRE_TYPE_Pr), (72 bytes).
    Removing eng_err.o(i.Work_Mode_Pr), (136 bytes).
    Removing eng_err.o(i.ZBTX_MODE_Pr), (64 bytes).
    Removing usr_lib.o(i.CAN1_Rx_Msg), (174 bytes).
    Removing usr_lib.o(i.CAN1_Tx_Msg), (194 bytes).
    Removing usr_lib.o(i.CANDataRegWrite), (36 bytes).
    Removing usr_lib.o(i.CAN_Tx_Msg), (194 bytes).
    Removing fadd.o(.text), (176 bytes).
    Removing cdcmple.o(.text), (48 bytes).
    Removing d2f.o(.text), (56 bytes).

527 unused section(s) (total 43440 bytes) removed from the image.

==============================================================================

Image Symbol Table

    Local Symbols

    Symbol Name                              Value     Ov Type        Size  Object(Section)

    RESET                                    0x00000000   Section      664  startup_rvmdk.o(RESET)
    ../clib/../cmprslib/zerorunl.c           0x00000000   Number         0  __dczerorl.o ABSOLUTE
    ../clib/microlib/division.c              0x00000000   Number         0  uidiv.o ABSOLUTE
    ../clib/microlib/division.c              0x00000000   Number         0  uldiv.o ABSOLUTE
    ../clib/microlib/init/entry.s            0x00000000   Number         0  entry9b.o ABSOLUTE
    ../clib/microlib/init/entry.s            0x00000000   Number         0  entry10a.o ABSOLUTE
    ../clib/microlib/init/entry.s            0x00000000   Number         0  entry2.o ABSOLUTE
    ../clib/microlib/init/entry.s            0x00000000   Number         0  entry8b.o ABSOLUTE
    ../clib/microlib/init/entry.s            0x00000000   Number         0  entry8a.o ABSOLUTE
    ../clib/microlib/init/entry.s            0x00000000   Number         0  entry7b.o ABSOLUTE
    ../clib/microlib/init/entry.s            0x00000000   Number         0  entry7a.o ABSOLUTE
    ../clib/microlib/init/entry.s            0x00000000   Number         0  entry11b.o ABSOLUTE
    ../clib/microlib/init/entry.s            0x00000000   Number         0  entry5.o ABSOLUTE
    ../clib/microlib/init/entry.s            0x00000000   Number         0  entry11a.o ABSOLUTE
    ../clib/microlib/init/entry.s            0x00000000   Number         0  entry10b.o ABSOLUTE
    ../clib/microlib/init/entry.s            0x00000000   Number         0  entry.o ABSOLUTE
    ../clib/microlib/init/entry.s            0x00000000   Number         0  entry9a.o ABSOLUTE
    ../clib/microlib/longlong.c              0x00000000   Number         0  llushr.o ABSOLUTE
    ../clib/microlib/longlong.c              0x00000000   Number         0  llsshr.o ABSOLUTE
    ../clib/microlib/longlong.c              0x00000000   Number         0  llshl.o ABSOLUTE
    ../clib/microlib/printf/printf.c         0x00000000   Number         0  printf7.o ABSOLUTE
    ../clib/microlib/printf/printf.c         0x00000000   Number         0  printf8.o ABSOLUTE
    ../clib/microlib/printf/printf.c         0x00000000   Number         0  printfa.o ABSOLUTE
    ../clib/microlib/printf/printf.c         0x00000000   Number         0  printf5.o ABSOLUTE
    ../clib/microlib/printf/printf.c         0x00000000   Number         0  printf6.o ABSOLUTE
    ../clib/microlib/printf/printf.c         0x00000000   Number         0  printf0.o ABSOLUTE
    ../clib/microlib/printf/printf.c         0x00000000   Number         0  printfb.o ABSOLUTE
    ../clib/microlib/printf/printf.c         0x00000000   Number         0  printf2.o ABSOLUTE
    ../clib/microlib/printf/printf.c         0x00000000   Number         0  printf4.o ABSOLUTE
    ../clib/microlib/printf/printf.c         0x00000000   Number         0  printf1.o ABSOLUTE
    ../clib/microlib/printf/printf.c         0x00000000   Number         0  printf3.o ABSOLUTE
    ../clib/microlib/printf/stubs.s          0x00000000   Number         0  stubs.o ABSOLUTE
    ../clib/microlib/stdio/fputc.c           0x00000000   Number         0  fputc.o ABSOLUTE
    ../clib/microlib/stdio/semi.s            0x00000000   Number         0  semi.o ABSOLUTE
    ../clib/microlib/stdio/streams.c         0x00000000   Number         0  stdout.o ABSOLUTE
    ../clib/microlib/string/memcpy.c         0x00000000   Number         0  memcpyb.o ABSOLUTE
    ../clib/microlib/string/memcpy.c         0x00000000   Number         0  memcpya.o ABSOLUTE
    ../clib/microlib/string/memset.c         0x00000000   Number         0  memseta.o ABSOLUTE
    ../clib/microlib/string/strcpy.c         0x00000000   Number         0  strcpy.o ABSOLUTE
    ../clib/microlib/string/strlen.c         0x00000000   Number         0  strlen.o ABSOLUTE
    ../clib/microlib/stubs.s                 0x00000000   Number         0  iusefp.o ABSOLUTE
    ../clib/microlib/stubs.s                 0x00000000   Number         0  iusesemip.o ABSOLUTE
    ../fplib/microlib/d2f.c                  0x00000000   Number         0  d2f.o ABSOLUTE
    ../fplib/microlib/f2d.c                  0x00000000   Number         0  f2d.o ABSOLUTE
    ../fplib/microlib/fpadd.c                0x00000000   Number         0  dadd.o ABSOLUTE
    ../fplib/microlib/fpadd.c                0x00000000   Number         0  fadd.o ABSOLUTE
    ../fplib/microlib/fpdiv.c                0x00000000   Number         0  ddiv.o ABSOLUTE
    ../fplib/microlib/fpdiv.c                0x00000000   Number         0  fdiv.o ABSOLUTE
    ../fplib/microlib/fpepilogue.c           0x00000000   Number         0  depilogue.o ABSOLUTE
    ../fplib/microlib/fpepilogue.c           0x00000000   Number         0  fepilogue.o ABSOLUTE
    ../fplib/microlib/fpfix.c                0x00000000   Number         0  dfixul.o ABSOLUTE
    ../fplib/microlib/fpfix.c                0x00000000   Number         0  dfixui.o ABSOLUTE
    ../fplib/microlib/fpfix.c                0x00000000   Number         0  dfixi.o ABSOLUTE
    ../fplib/microlib/fpfix.c                0x00000000   Number         0  ffixui.o ABSOLUTE
    ../fplib/microlib/fpflt.c                0x00000000   Number         0  dfltui.o ABSOLUTE
    ../fplib/microlib/fpflt.c                0x00000000   Number         0  ffltui.o ABSOLUTE
    ../fplib/microlib/fpmul.c                0x00000000   Number         0  fmul.o ABSOLUTE
    ../fplib/microlib/fpmul.c                0x00000000   Number         0  dmul.o ABSOLUTE
    ..\\driverlib\\cpu.c                     0x00000000   Number         0  cpu.o ABSOLUTE
    ..\\driverlib\\sysctl.c                  0x00000000   Number         0  sysctl.o ABSOLUTE
    ..\driverlib\adc.c                       0x00000000   Number         0  adc.o ABSOLUTE
    ..\driverlib\can.c                       0x00000000   Number         0  can.o ABSOLUTE
    ..\driverlib\cpu.c                       0x00000000   Number         0  cpu.o ABSOLUTE
    ..\driverlib\eeprom.c                    0x00000000   Number         0  eeprom.o ABSOLUTE
    ..\driverlib\flash.c                     0x00000000   Number         0  flash.o ABSOLUTE
    ..\driverlib\fpu.c                       0x00000000   Number         0  fpu.o ABSOLUTE
    ..\driverlib\gpio.c                      0x00000000   Number         0  gpio.o ABSOLUTE
    ..\driverlib\interrupt.c                 0x00000000   Number         0  interrupt.o ABSOLUTE
    ..\driverlib\mpu.c                       0x00000000   Number         0  mpu.o ABSOLUTE
    ..\driverlib\ssi.c                       0x00000000   Number         0  ssi.o ABSOLUTE
    ..\driverlib\sysctl.c                    0x00000000   Number         0  sysctl.o ABSOLUTE
    ..\driverlib\sysexc.c                    0x00000000   Number         0  sysexc.o ABSOLUTE
    ..\driverlib\systick.c                   0x00000000   Number         0  systick.o ABSOLUTE
    ..\driverlib\timer.c                     0x00000000   Number         0  timer.o ABSOLUTE
    ..\driverlib\uart.c                      0x00000000   Number         0  uart.o ABSOLUTE
    ..\driverlib\udma.c                      0x00000000   Number         0  udma.o ABSOLUTE
    ..\driverlib\watchdog.c                  0x00000000   Number         0  watchdog.o ABSOLUTE
    ..\user_c\BitVari.C                      0x00000000   Number         0  bitvari.o ABSOLUTE
    ..\user_c\CAN_API.C                      0x00000000   Number         0  can_api.o ABSOLUTE
    ..\user_c\CLK_ERR.C                      0x00000000   Number         0  clk_err.o ABSOLUTE
    ..\user_c\Disp.C                         0x00000000   Number         0  disp.o ABSOLUTE
    ..\user_c\ENG_ERR.C                      0x00000000   Number         0  eng_err.o ABSOLUTE
    ..\user_c\Init.C                         0x00000000   Number         0  init.o ABSOLUTE
    ..\user_c\Interrupt_API.C                0x00000000   Number         0  interrupt_api.o ABSOLUTE
    ..\user_c\UART_API.C                     0x00000000   Number         0  uart_api.o ABSOLUTE
    ..\user_c\Usr_Lib.c                      0x00000000   Number         0  usr_lib.o ABSOLUTE
    ..\user_c\main.c                         0x00000000   Number         0  main.o ABSOLUTE
    ..\user_c\startup_rvmdk.S                0x00000000   Number         0  startup_rvmdk.o ABSOLUTE
    ..\user_c\vari.c                         0x00000000   Number         0  vari.o ABSOLUTE
    cdcmple.s                                0x00000000   Number         0  cdcmple.o ABSOLUTE
    cdrcmple.s                               0x00000000   Number         0  cdrcmple.o ABSOLUTE
    cfcmple.s                                0x00000000   Number         0  cfcmple.o ABSOLUTE
    cfrcmple.s                               0x00000000   Number         0  cfrcmple.o ABSOLUTE
    dc.s                                     0x00000000   Number         0  dc.o ABSOLUTE
    handlers.s                               0x00000000   Number         0  handlers.o ABSOLUTE
    init.s                                   0x00000000   Number         0  init.o ABSOLUTE
    NmiSR                                    0x00000293   Thumb Code     0  startup_rvmdk.o(RESET)
    FaultISR                                 0x00000295   Thumb Code     0  startup_rvmdk.o(RESET)
    IntDefaultHandler                        0x00000297   Thumb Code     0  startup_rvmdk.o(RESET)
    .ARM.Collect$$$$00000000                 0x00000298   Section        0  entry.o(.ARM.Collect$$$$00000000)
    .ARM.Collect$$$$00000001                 0x00000298   Section        4  entry2.o(.ARM.Collect$$$$00000001)
    .ARM.Collect$$$$00000004                 0x0000029c   Section        4  entry5.o(.ARM.Collect$$$$00000004)
    .ARM.Collect$$$$00000008                 0x000002a0   Section        0  entry7b.o(.ARM.Collect$$$$00000008)
    .ARM.Collect$$$$0000000A                 0x000002a0   Section        0  entry8b.o(.ARM.Collect$$$$0000000A)
    .ARM.Collect$$$$0000000B                 0x000002a0   Section        8  entry9a.o(.ARM.Collect$$$$0000000B)
    .ARM.Collect$$$$0000000D                 0x000002a8   Section        0  entry10a.o(.ARM.Collect$$$$0000000D)
    .ARM.Collect$$$$0000000F                 0x000002a8   Section        0  entry11a.o(.ARM.Collect$$$$0000000F)
    .ARM.Collect$$$$00002712                 0x000002a8   Section        4  entry2.o(.ARM.Collect$$$$00002712)
    __lit__00000000                          0x000002a8   Data           4  entry2.o(.ARM.Collect$$$$00002712)
    .emb_text                                0x000002ac   Section        6  sysctl.o(.emb_text)
    .emb_text                                0x000002b4   Section       38  cpu.o(.emb_text)
    .text                                    0x000002da   Section        0  memseta.o(.text)
    .text                                    0x000002fe   Section        0  strlen.o(.text)
    .text                                    0x0000030c   Section        0  fmul.o(.text)
    .text                                    0x00000370   Section        0  fdiv.o(.text)
    .text                                    0x000003ec   Section        0  dadd.o(.text)
    .text                                    0x0000053a   Section        0  dmul.o(.text)
    .text                                    0x0000061e   Section        0  ddiv.o(.text)
    .text                                    0x000006fc   Section        0  ffltui.o(.text)
    .text                                    0x00000706   Section        0  dfltui.o(.text)
    .text                                    0x00000720   Section        0  ffixui.o(.text)
    .text                                    0x00000748   Section        0  dfixi.o(.text)
    .text                                    0x00000786   Section        0  dfixui.o(.text)
    .text                                    0x000007b8   Section        0  f2d.o(.text)
    .text                                    0x000007e0   Section       48  cdrcmple.o(.text)
    .text                                    0x00000810   Section       20  cfcmple.o(.text)
    .text                                    0x00000824   Section       20  cfrcmple.o(.text)
    .text                                    0x00000838   Section        0  uidiv.o(.text)
    .text                                    0x00000864   Section        0  uldiv.o(.text)
    .text                                    0x000008c6   Section        0  llshl.o(.text)
    .text                                    0x000008e4   Section        0  llushr.o(.text)
    .text                                    0x00000904   Section        0  llsshr.o(.text)
    .text                                    0x00000928   Section        0  fepilogue.o(.text)
    .text                                    0x00000928   Section        0  iusefp.o(.text)
    .text                                    0x00000996   Section        0  depilogue.o(.text)
    .text                                    0x00000a50   Section        0  dfixul.o(.text)
    .text                                    0x00000a80   Section       36  init.o(.text)
    .text                                    0x00000aa4   Section        0  __dczerorl.o(.text)
    i.ADC0Handler                            0x00000ae0   Section        0  interrupt_api.o(i.ADC0Handler)
    i.ADCIntClear                            0x00000b2c   Section        0  adc.o(i.ADCIntClear)
    i.ADCSequenceDataGet                     0x00000b34   Section        0  adc.o(i.ADCSequenceDataGet)
    i.CAN0Handler                            0x00000b58   Section        0  interrupt_api.o(i.CAN0Handler)
    i.CAN1Handler                            0x00000d04   Section        0  interrupt_api.o(i.CAN1Handler)
    i.CAN1_RxMsg_Set                         0x00000d06   Section        0  usr_lib.o(i.CAN1_RxMsg_Set)
    i.CANBitRateSet                          0x00000e84   Section        0  can.o(i.CANBitRateSet)
    i.CANDataRegRead                         0x00000efc   Section        0  usr_lib.o(i.CANDataRegRead)
    i.CANDisable                             0x00000f20   Section        0  can.o(i.CANDisable)
    i.CANEnable                              0x00000f2a   Section        0  can.o(i.CANEnable)
    i.CANErrCntrGet                          0x00000f34   Section        0  can.o(i.CANErrCntrGet)
    i.CANInit                                0x00000f54   Section        0  can.o(i.CANInit)
    i.CANIntClear                            0x00000fa6   Section        0  can.o(i.CANIntClear)
    i.CANIntEnable                           0x00000fd4   Section        0  can.o(i.CANIntEnable)
    i.CANIntStatus                           0x00000fdc   Section        0  can.o(i.CANIntStatus)
    i.CANStatusGet                           0x00001002   Section        0  can.o(i.CANStatusGet)
    i.CAN_RxMsg_Set                          0x00001050   Section        0  usr_lib.o(i.CAN_RxMsg_Set)
    i.CAN_Rx_Msg                             0x000011cc   Section        0  usr_lib.o(i.CAN_Rx_Msg)
    i.Cal_Clk_Reload                         0x0000127c   Section        0  clk_err.o(i.Cal_Clk_Reload)
    i.Cal_Gp_Relaod                          0x00001610   Section        0  eng_err.o(i.Cal_Gp_Relaod)
    i.Cal_STD_ENG_CNT_VAL                    0x00001694   Section        0  eng_err.o(i.Cal_STD_ENG_CNT_VAL)
    i.Check_SMtr_Tab_Sts                     0x000017c4   Section        0  init.o(i.Check_SMtr_Tab_Sts)
    i.DZPLS_Interrupt_Pr                     0x0000189c   Section        0  interrupt_api.o(i.DZPLS_Interrupt_Pr)
    i.ELSC_PLS_IN_DEN                        0x0000193c   Section        0  eng_err.o(i.ELSC_PLS_IN_DEN)
    i.ENG_PLS_IN_Pr                          0x00001a08   Section        0  eng_err.o(i.ENG_PLS_IN_Pr)
    i.Ext_WDTFeed                            0x00001a74   Section        0  clk_err.o(i.Ext_WDTFeed)
    i.Fill_Space_StrCpy                      0x00001ad4   Section        0  init.o(i.Fill_Space_StrCpy)
    i.FlashErase                             0x00001b7c   Section        0  flash.o(i.FlashErase)
    i.GDT_PLS_IN_DEN                         0x00001bbc   Section        0  eng_err.o(i.GDT_PLS_IN_DEN)
    i.GPIOAHandler                           0x00001c3c   Section        0  interrupt_api.o(i.GPIOAHandler)
    i.GPIODirModeSet                         0x00001cb4   Section        0  gpio.o(i.GPIODirModeSet)
    i.GPIOIntClear                           0x00001ce6   Section        0  gpio.o(i.GPIOIntClear)
    i.GPIOIntDisable                         0x00001cec   Section        0  gpio.o(i.GPIOIntDisable)
    i.GPIOIntStatus                          0x00001cf8   Section        0  gpio.o(i.GPIOIntStatus)
    i.GPIOIntTypeSet                         0x00001d08   Section        0  gpio.o(i.GPIOIntTypeSet)
    i.GPIOMHandler                           0x00001d70   Section        0  interrupt_api.o(i.GPIOMHandler)
    i.GPIONHandler                           0x00001f74   Section        0  interrupt_api.o(i.GPIONHandler)
    i.GPIOPadConfigSet                       0x00001fb0   Section        0  gpio.o(i.GPIOPadConfigSet)
    i.GPIOPinConfigure                       0x00002108   Section        0  gpio.o(i.GPIOPinConfigure)
    i.GPIOPinRead                            0x00002158   Section        0  gpio.o(i.GPIOPinRead)
    i.GPIOPinTypeCAN                         0x00002164   Section        0  gpio.o(i.GPIOPinTypeCAN)
    i.GPIOPinTypeGPIOInput                   0x00002182   Section        0  gpio.o(i.GPIOPinTypeGPIOInput)
    i.GPIOPinTypeGPIOOutput                  0x000021a0   Section        0  gpio.o(i.GPIOPinTypeGPIOOutput)
    i.GPIOPinTypeI2C                         0x000021be   Section        0  gpio.o(i.GPIOPinTypeI2C)
    i.GPIOPinTypeI2CSCL                      0x000021dc   Section        0  gpio.o(i.GPIOPinTypeI2CSCL)
    i.GPIOPinTypeSSI                         0x000021fa   Section        0  gpio.o(i.GPIOPinTypeSSI)
    i.GPIOPinTypeTimer                       0x00002218   Section        0  gpio.o(i.GPIOPinTypeTimer)
    i.GPIOPinTypeUART                        0x00002236   Section        0  gpio.o(i.GPIOPinTypeUART)
    i.GPIOPinWrite                           0x00002254   Section        0  gpio.o(i.GPIOPinWrite)
    i.Init_CAN0                              0x00002260   Section        0  init.o(i.Init_CAN0)
    i.Init_CAN1                              0x000022b0   Section        0  init.o(i.Init_CAN1)
    i.Init_Com                               0x00002300   Section        0  init.o(i.Init_Com)
    i.Init_DEVICE_IO                         0x000023f4   Section        0  eng_err.o(i.Init_DEVICE_IO)
    i.Init_Gpio                              0x0000253c   Section        0  init.o(i.Init_Gpio)
    i.Init_Int                               0x000028bc   Section        0  init.o(i.Init_Int)
    i.Init_Pll                               0x000029f4   Section        0  init.o(i.Init_Pll)
    i.Init_Ram                               0x00002a18   Section        0  init.o(i.Init_Ram)
    i.Init_Ssi                               0x00002eec   Section        0  init.o(i.Init_Ssi)
    i.Init_SysTick                           0x00002f20   Section        0  init.o(i.Init_SysTick)
    i.Init_Timer                             0x00002f4c   Section        0  init.o(i.Init_Timer)
    i.Init_Uart                              0x00003298   Section        0  init.o(i.Init_Uart)
    i.Init_Wdt                               0x000032fc   Section        0  init.o(i.Init_Wdt)
    i.IntEnable                              0x00003354   Section        0  interrupt.o(i.IntEnable)
    i.IntMasterDisable                       0x000033c8   Section        0  interrupt.o(i.IntMasterDisable)
    i.IntMasterEnable                        0x000033d8   Section        0  interrupt.o(i.IntMasterEnable)
    i.IntPrioritySet                         0x000033e8   Section        0  interrupt.o(i.IntPrioritySet)
    i.MFuction_Clk_Cfg                       0x0000341c   Section        0  eng_err.o(i.MFuction_Clk_Cfg)
    i.Mea_Period_Pr                          0x00003598   Section        0  interrupt_api.o(i.Mea_Period_Pr)
    i.Read_Mtr_Numb                          0x000036a4   Section        0  init.o(i.Read_Mtr_Numb)
    i.SSIConfigSetExpClk                     0x0000375c   Section        0  ssi.o(i.SSIConfigSetExpClk)
    i.SSIEnable                              0x000037c2   Section        0  ssi.o(i.SSIEnable)
    i.SZPLS_Interrupt_Pr                     0x000037cc   Section        0  interrupt_api.o(i.SZPLS_Interrupt_Pr)
    i.Set_CAN1MsgRam                         0x000038a8   Section        0  usr_lib.o(i.Set_CAN1MsgRam)
    i.Set_MsgRam                             0x000038e8   Section        0  usr_lib.o(i.Set_MsgRam)
    i.SysCtlClockGet                         0x000039d8   Section        0  sysctl.o(i.SysCtlClockGet)
    i.SysCtlClockSet                         0x00003ae0   Section        0  sysctl.o(i.SysCtlClockSet)
    i.SysCtlPeripheralEnable                 0x00003c2c   Section        0  sysctl.o(i.SysCtlPeripheralEnable)
    i.SysTickEnable                          0x00003c60   Section        0  systick.o(i.SysTickEnable)
    i.SysTickIntEnable                       0x00003c72   Section        0  systick.o(i.SysTickIntEnable)
    i.SysTickIntHandler                      0x00003c84   Section        0  interrupt_api.o(i.SysTickIntHandler)
    i.SysTickPeriodSet                       0x00003d24   Section        0  systick.o(i.SysTickPeriodSet)
    i.Timer0AIntHandler                      0x00003d30   Section        0  interrupt_api.o(i.Timer0AIntHandler)
    i.Timer0BIntHandler                      0x00003d60   Section        0  interrupt_api.o(i.Timer0BIntHandler)
    i.Timer1AIntHandler                      0x00003d94   Section        0  interrupt_api.o(i.Timer1AIntHandler)
    i.Timer1BIntHandler                      0x00003dc4   Section        0  interrupt_api.o(i.Timer1BIntHandler)
    i.Timer2AIntHandler                      0x00003e20   Section        0  interrupt_api.o(i.Timer2AIntHandler)
    i.Timer2BIntHandler                      0x00003e90   Section        0  interrupt_api.o(i.Timer2BIntHandler)
    i.Timer3AIntHandler                      0x00003ec4   Section        0  interrupt_api.o(i.Timer3AIntHandler)
    i.Timer3BIntHandler                      0x00003f24   Section        0  interrupt_api.o(i.Timer3BIntHandler)
    i.Timer4AIntHandler                      0x00003f78   Section        0  interrupt_api.o(i.Timer4AIntHandler)
    i.Timer4BIntHandler                      0x00003fec   Section        0  interrupt_api.o(i.Timer4BIntHandler)
    i.Timer5AIntHandler                      0x00004080   Section        0  interrupt_api.o(i.Timer5AIntHandler)
    i.TimerConfigure                         0x0000410c   Section        0  timer.o(i.TimerConfigure)
    i.TimerControlEvent                      0x0000416c   Section        0  timer.o(i.TimerControlEvent)
    i.TimerControlStall                      0x00004182   Section        0  timer.o(i.TimerControlStall)
    i.TimerDisable                           0x00004198   Section        0  timer.o(i.TimerDisable)
    i.TimerEnable                            0x000041a6   Section        0  timer.o(i.TimerEnable)
    i.TimerIntClear                          0x000041b4   Section        0  timer.o(i.TimerIntClear)
    i.TimerIntEnable                         0x000041b8   Section        0  timer.o(i.TimerIntEnable)
    i.TimerIntStatus                         0x000041c0   Section        0  timer.o(i.TimerIntStatus)
    i.TimerLoadSet                           0x000041cc   Section        0  timer.o(i.TimerLoadSet)
    i.TimerMatchSet                          0x000041dc   Section        0  timer.o(i.TimerMatchSet)
    i.TimerValueGet                          0x000041ec   Section        0  timer.o(i.TimerValueGet)
    i.UART0IntHandler                        0x000041fc   Section        0  interrupt_api.o(i.UART0IntHandler)
    i.UART1IntHandler                        0x00004348   Section        0  interrupt_api.o(i.UART1IntHandler)
    i.UART3IntHandler                        0x00004494   Section        0  interrupt_api.o(i.UART3IntHandler)
    i.UART5IntHandler                        0x000045e0   Section        0  interrupt_api.o(i.UART5IntHandler)
    i.UART6IntHandler                        0x0000472c   Section        0  interrupt_api.o(i.UART6IntHandler)
    i.UARTCharGet                            0x00004878   Section        0  uart.o(i.UARTCharGet)
    i.UARTCharPut                            0x0000488a   Section        0  uart.o(i.UARTCharPut)
    i.UARTCharsAvail                         0x0000489a   Section        0  uart.o(i.UARTCharsAvail)
    i.UARTConfigSetExpClk                    0x000048a6   Section        0  uart.o(i.UARTConfigSetExpClk)
    i.UARTDisable                            0x000048f2   Section        0  uart.o(i.UARTDisable)
    i.UARTEnable                             0x00004912   Section        0  uart.o(i.UARTEnable)
    i.UARTFIFOLevelSet                       0x00004926   Section        0  uart.o(i.UARTFIFOLevelSet)
    i.UARTIntClear                           0x0000492e   Section        0  uart.o(i.UARTIntClear)
    i.UARTIntEnable                          0x00004932   Section        0  uart.o(i.UARTIntEnable)
    i.UARTIntStatus                          0x0000493a   Section        0  uart.o(i.UARTIntStatus)
    i.Update_Mtr_Num                         0x00004948   Section        0  disp.o(i.Update_Mtr_Num)
    i.Update_N_Buf                           0x000049b4   Section        0  disp.o(i.Update_N_Buf)
    i.WDTFeed                                0x00004a50   Section        0  usr_lib.o(i.WDTFeed)
    i.WatchDogHandler                        0x00004a68   Section        0  interrupt_api.o(i.WatchDogHandler)
    i.WatchdogEnable                         0x00004a74   Section        0  watchdog.o(i.WatchdogEnable)
    i.WatchdogIntClear                       0x00004a7e   Section        0  watchdog.o(i.WatchdogIntClear)
    i.WatchdogReloadGet                      0x00004a84   Section        0  watchdog.o(i.WatchdogReloadGet)
    i.WatchdogReloadSet                      0x00004a8a   Section        0  watchdog.o(i.WatchdogReloadSet)
    i.WatchdogResetEnable                    0x00004a8e   Section        0  watchdog.o(i.WatchdogResetEnable)
    i.WatchdogStallEnable                    0x00004a98   Section        0  watchdog.o(i.WatchdogStallEnable)
    i.WatchdogUnlock                         0x00004aa8   Section        0  watchdog.o(i.WatchdogUnlock)
    i.__0sprintf                             0x00004ab4   Section        0  printfa.o(i.__0sprintf)
    i.__scatterload_copy                     0x00004adc   Section       14  handlers.o(i.__scatterload_copy)
    i.__scatterload_null                     0x00004aea   Section        2  handlers.o(i.__scatterload_null)
    i.__scatterload_zeroinit                 0x00004aec   Section       14  handlers.o(i.__scatterload_zeroinit)
    i._fp_digits                             0x00004afc   Section        0  printfa.o(i._fp_digits)
    _fp_digits                               0x00004afd   Thumb Code   366  printfa.o(i._fp_digits)
    i._printf_core                           0x00004c80   Section        0  printfa.o(i._printf_core)
    _printf_core                             0x00004c81   Thumb Code  1744  printfa.o(i._printf_core)
    i._printf_post_padding                   0x0000535c   Section        0  printfa.o(i._printf_post_padding)
    _printf_post_padding                     0x0000535d   Thumb Code    36  printfa.o(i._printf_post_padding)
    i._printf_pre_padding                    0x00005380   Section        0  printfa.o(i._printf_pre_padding)
    _printf_pre_padding                      0x00005381   Thumb Code    46  printfa.o(i._printf_pre_padding)
    i._sputc                                 0x000053ae   Section        0  printfa.o(i._sputc)
    _sputc                                   0x000053af   Thumb Code    10  printfa.o(i._sputc)
    i.main                                   0x000053b8   Section        0  main.o(i.main)
    .constdata                               0x00005414   Section      460  sysctl.o(.constdata)
    g_pui32Xtals                             0x00005414   Data         108  sysctl.o(.constdata)
    g_pppui32XTALtoVCO                       0x00005480   Data         288  sysctl.o(.constdata)
    g_sXTALtoMEMTIM                          0x000055a0   Data          56  sysctl.o(.constdata)
    g_pui32VCOFrequencies                    0x000055d8   Data           8  sysctl.o(.constdata)
    .constdata                               0x000055e0   Section       32  can.o(.constdata)
    g_ui16CANBitValues                       0x000055e0   Data          32  can.o(.constdata)
    .constdata                               0x00005600   Section      528  gpio.o(.constdata)
    g_ppui32GPIOIntMapBlizzard               0x00005600   Data         192  gpio.o(.constdata)
    g_ppui32GPIOIntMapSnowflake              0x000056c0   Data         192  gpio.o(.constdata)
    g_pui32GPIOBaseAddrs                     0x00005780   Data         144  gpio.o(.constdata)
    .constdata                               0x00005810   Section      268  interrupt.o(.constdata)
    g_pui32Priority                          0x00005810   Data          32  interrupt.o(.constdata)
    g_pui32Regs                              0x00005830   Data         156  interrupt.o(.constdata)
    g_pui32EnRegs                            0x000058cc   Data          20  interrupt.o(.constdata)
    g_pui32Dii16Regs                         0x000058e0   Data          20  interrupt.o(.constdata)
    g_pui32PendRegs                          0x000058f4   Data          20  interrupt.o(.constdata)
    g_pui32UnpendRegs                        0x00005908   Data          20  interrupt.o(.constdata)
    .constdata                               0x0000591c   Section      228  init.o(.constdata)
    .constdata                               0x00005a00   Section       32  uart_api.o(.constdata)
    .constdata                               0x00005a20   Section      160  eng_err.o(.constdata)
    .data                                    0x20000000   Section      392  bitvari.o(.data)
    .data                                    0x20000188   Section      686  vari.o(.data)
    .bss                                     0x20000438   Section    19408  vari.o(.bss)
    STACK                                    0x20005008   Section     1024  startup_rvmdk.o(STACK)
    StackMem                                 0x20005008   Data           0  startup_rvmdk.o(STACK)

    Global Symbols

    Symbol Name                              Value     Ov Type        Size  Object(Section)

    BuildAttributes$$THM_ISAv4$E$P$D$K$B$S$7EM$PE$A:L22UL41UL21$X:L11$S22US41US21$IEEE1$IW$USESV6$~STKCKD$USESV7$~SHL$OTIME$ROPI$EBA8$MICROLIB$REQ8$PRES8$EABIv2 0x00000000   Number         0  anon$$obj.o ABSOLUTE
    __ARM_use_no_argv                        0x00000000   Number         0  main.o ABSOLUTE
    __Vectors                                0x00000000   Data           0  startup_rvmdk.o(RESET)
    _printf_a                                0x00000000   Number         0  stubs.o ABSOLUTE
    _printf_c                                0x00000000   Number         0  stubs.o ABSOLUTE
    _printf_charcount                        0x00000000   Number         0  stubs.o ABSOLUTE
    _printf_d                                0x00000000   Number         0  stubs.o ABSOLUTE
    _printf_e                                0x00000000   Number         0  stubs.o ABSOLUTE
    _printf_f                                0x00000000   Number         0  stubs.o ABSOLUTE
    _printf_flags                            0x00000000   Number         0  stubs.o ABSOLUTE
    _printf_fp_dec                           0x00000000   Number         0  stubs.o ABSOLUTE
    _printf_fp_hex                           0x00000000   Number         0  stubs.o ABSOLUTE
    _printf_g                                0x00000000   Number         0  stubs.o ABSOLUTE
    _printf_i                                0x00000000   Number         0  stubs.o ABSOLUTE
    _printf_int_dec                          0x00000000   Number         0  stubs.o ABSOLUTE
    _printf_l                                0x00000000   Number         0  stubs.o ABSOLUTE
    _printf_lc                               0x00000000   Number         0  stubs.o ABSOLUTE
    _printf_ll                               0x00000000   Number         0  stubs.o ABSOLUTE
    _printf_lld                              0x00000000   Number         0  stubs.o ABSOLUTE
    _printf_lli                              0x00000000   Number         0  stubs.o ABSOLUTE
    _printf_llo                              0x00000000   Number         0  stubs.o ABSOLUTE
    _printf_llu                              0x00000000   Number         0  stubs.o ABSOLUTE
    _printf_llx                              0x00000000   Number         0  stubs.o ABSOLUTE
    _printf_longlong_dec                     0x00000000   Number         0  stubs.o ABSOLUTE
    _printf_longlong_hex                     0x00000000   Number         0  stubs.o ABSOLUTE
    _printf_longlong_oct                     0x00000000   Number         0  stubs.o ABSOLUTE
    _printf_ls                               0x00000000   Number         0  stubs.o ABSOLUTE
    _printf_mbtowc                           0x00000000   Number         0  stubs.o ABSOLUTE
    _printf_n                                0x00000000   Number         0  stubs.o ABSOLUTE
    _printf_o                                0x00000000   Number         0  stubs.o ABSOLUTE
    _printf_p                                0x00000000   Number         0  stubs.o ABSOLUTE
    _printf_percent                          0x00000000   Number         0  stubs.o ABSOLUTE
    _printf_pre_padding                      0x00000000   Number         0  stubs.o ABSOLUTE
    _printf_return_value                     0x00000000   Number         0  stubs.o ABSOLUTE
    _printf_s                                0x00000000   Number         0  stubs.o ABSOLUTE
    _printf_sizespec                         0x00000000   Number         0  stubs.o ABSOLUTE
    _printf_str                              0x00000000   Number         0  stubs.o ABSOLUTE
    _printf_truncate_signed                  0x00000000   Number         0  stubs.o ABSOLUTE
    _printf_truncate_unsigned                0x00000000   Number         0  stubs.o ABSOLUTE
    _printf_u                                0x00000000   Number         0  stubs.o ABSOLUTE
    _printf_wc                               0x00000000   Number         0  stubs.o ABSOLUTE
    _printf_wctomb                           0x00000000   Number         0  stubs.o ABSOLUTE
    _printf_widthprec                        0x00000000   Number         0  stubs.o ABSOLUTE
    _printf_x                                0x00000000   Number         0  stubs.o ABSOLUTE
    __cpp_initialize__aeabi_                  - Undefined Weak Reference
    __cxa_finalize                            - Undefined Weak Reference
    _clock_init                               - Undefined Weak Reference
    _microlib_exit                            - Undefined Weak Reference
    Reset_Handler                            0x0000026d   Thumb Code     0  startup_rvmdk.o(RESET)
    __main                                   0x00000299   Thumb Code     0  entry.o(.ARM.Collect$$$$00000000)
    _main_stk                                0x00000299   Thumb Code     0  entry2.o(.ARM.Collect$$$$00000001)
    _main_scatterload                        0x0000029d   Thumb Code     0  entry5.o(.ARM.Collect$$$$00000004)
    __main_after_scatterload                 0x000002a1   Thumb Code     0  entry5.o(.ARM.Collect$$$$00000004)
    _main_clock                              0x000002a1   Thumb Code     0  entry7b.o(.ARM.Collect$$$$00000008)
    _main_cpp_init                           0x000002a1   Thumb Code     0  entry8b.o(.ARM.Collect$$$$0000000A)
    _main_init                               0x000002a1   Thumb Code     0  entry9a.o(.ARM.Collect$$$$0000000B)
    __rt_final_cpp                           0x000002a9   Thumb Code     0  entry10a.o(.ARM.Collect$$$$0000000D)
    __rt_final_exit                          0x000002a9   Thumb Code     0  entry11a.o(.ARM.Collect$$$$0000000F)
    SysCtlDelay                              0x000002ad   Thumb Code     6  sysctl.o(.emb_text)
    CPUcpsid                                 0x000002b5   Thumb Code     8  cpu.o(.emb_text)
    CPUprimask                               0x000002bd   Thumb Code     6  cpu.o(.emb_text)
    CPUcpsie                                 0x000002c3   Thumb Code     8  cpu.o(.emb_text)
    CPUwfi                                   0x000002cb   Thumb Code     4  cpu.o(.emb_text)
    CPUbasepriSet                            0x000002cf   Thumb Code     6  cpu.o(.emb_text)
    CPUbasepriGet                            0x000002d5   Thumb Code     6  cpu.o(.emb_text)
    __aeabi_memset                           0x000002db   Thumb Code    14  memseta.o(.text)
    __aeabi_memset4                          0x000002db   Thumb Code     0  memseta.o(.text)
    __aeabi_memset8                          0x000002db   Thumb Code     0  memseta.o(.text)
    __aeabi_memclr                           0x000002e9   Thumb Code     4  memseta.o(.text)
    __aeabi_memclr4                          0x000002e9   Thumb Code     0  memseta.o(.text)
    __aeabi_memclr8                          0x000002e9   Thumb Code     0  memseta.o(.text)
    _memset$wrapper                          0x000002ed   Thumb Code    18  memseta.o(.text)
    strlen                                   0x000002ff   Thumb Code    14  strlen.o(.text)
    __aeabi_fmul                             0x0000030d   Thumb Code   100  fmul.o(.text)
    __aeabi_fdiv                             0x00000371   Thumb Code   124  fdiv.o(.text)
    __aeabi_dadd                             0x000003ed   Thumb Code   322  dadd.o(.text)
    __aeabi_dsub                             0x0000052f   Thumb Code     6  dadd.o(.text)
    __aeabi_drsub                            0x00000535   Thumb Code     6  dadd.o(.text)
    __aeabi_dmul                             0x0000053b   Thumb Code   228  dmul.o(.text)
    __aeabi_ddiv                             0x0000061f   Thumb Code   222  ddiv.o(.text)
    __aeabi_ui2f                             0x000006fd   Thumb Code    10  ffltui.o(.text)
    __aeabi_ui2d                             0x00000707   Thumb Code    26  dfltui.o(.text)
    __aeabi_f2uiz                            0x00000721   Thumb Code    40  ffixui.o(.text)
    __aeabi_d2iz                             0x00000749   Thumb Code    62  dfixi.o(.text)
    __aeabi_d2uiz                            0x00000787   Thumb Code    50  dfixui.o(.text)
    __aeabi_f2d                              0x000007b9   Thumb Code    38  f2d.o(.text)
    __aeabi_cdrcmple                         0x000007e1   Thumb Code    48  cdrcmple.o(.text)
    __aeabi_cfcmpeq                          0x00000811   Thumb Code     0  cfcmple.o(.text)
    __aeabi_cfcmple                          0x00000811   Thumb Code    20  cfcmple.o(.text)
    __aeabi_cfrcmple                         0x00000825   Thumb Code    20  cfrcmple.o(.text)
    __aeabi_uidiv                            0x00000839   Thumb Code     0  uidiv.o(.text)
    __aeabi_uidivmod                         0x00000839   Thumb Code    44  uidiv.o(.text)
    __aeabi_uldivmod                         0x00000865   Thumb Code    98  uldiv.o(.text)
    __aeabi_llsl                             0x000008c7   Thumb Code    30  llshl.o(.text)
    _ll_shift_l                              0x000008c7   Thumb Code     0  llshl.o(.text)
    __aeabi_llsr                             0x000008e5   Thumb Code    32  llushr.o(.text)
    _ll_ushift_r                             0x000008e5   Thumb Code     0  llushr.o(.text)
    __aeabi_lasr                             0x00000905   Thumb Code    36  llsshr.o(.text)
    _ll_sshift_r                             0x00000905   Thumb Code     0  llsshr.o(.text)
    __I$use$fp                               0x00000929   Thumb Code     0  iusefp.o(.text)
    _float_round                             0x00000929   Thumb Code    18  fepilogue.o(.text)
    _float_epilogue                          0x0000093b   Thumb Code    92  fepilogue.o(.text)
    _double_round                            0x00000997   Thumb Code    30  depilogue.o(.text)
    _double_epilogue                         0x000009b5   Thumb Code   156  depilogue.o(.text)
    __aeabi_d2ulz                            0x00000a51   Thumb Code    48  dfixul.o(.text)
    __scatterload                            0x00000a81   Thumb Code    28  init.o(.text)
    __scatterload_rt2                        0x00000a81   Thumb Code     0  init.o(.text)
    __decompress                             0x00000aa5   Thumb Code     0  __dczerorl.o(.text)
    __decompress0                            0x00000aa5   Thumb Code    58  __dczerorl.o(.text)
    ADC0Handler                              0x00000ae1   Thumb Code    62  interrupt_api.o(i.ADC0Handler)
    ADCIntClear                              0x00000b2d   Thumb Code     8  adc.o(i.ADCIntClear)
    ADCSequenceDataGet                       0x00000b35   Thumb Code    34  adc.o(i.ADCSequenceDataGet)
    CAN0Handler                              0x00000b59   Thumb Code   348  interrupt_api.o(i.CAN0Handler)
    CAN1Handler                              0x00000d05   Thumb Code     2  interrupt_api.o(i.CAN1Handler)
    CAN1_RxMsg_Set                           0x00000d07   Thumb Code   380  usr_lib.o(i.CAN1_RxMsg_Set)
    CANBitRateSet                            0x00000e85   Thumb Code   116  can.o(i.CANBitRateSet)
    CANDataRegRead                           0x00000efd   Thumb Code    36  usr_lib.o(i.CANDataRegRead)
    CANDisable                               0x00000f21   Thumb Code    10  can.o(i.CANDisable)
    CANEnable                                0x00000f2b   Thumb Code    10  can.o(i.CANEnable)
    CANErrCntrGet                            0x00000f35   Thumb Code    32  can.o(i.CANErrCntrGet)
    CANInit                                  0x00000f55   Thumb Code    82  can.o(i.CANInit)
    CANIntClear                              0x00000fa7   Thumb Code    46  can.o(i.CANIntClear)
    CANIntEnable                             0x00000fd5   Thumb Code     8  can.o(i.CANIntEnable)
    CANIntStatus                             0x00000fdd   Thumb Code    38  can.o(i.CANIntStatus)
    CANStatusGet                             0x00001003   Thumb Code    78  can.o(i.CANStatusGet)
    CAN_RxMsg_Set                            0x00001051   Thumb Code   380  usr_lib.o(i.CAN_RxMsg_Set)
    CAN_Rx_Msg                               0x000011cd   Thumb Code   174  usr_lib.o(i.CAN_Rx_Msg)
    Cal_Clk_Reload                           0x0000127d   Thumb Code   788  clk_err.o(i.Cal_Clk_Reload)
    Cal_Gp_Relaod                            0x00001611   Thumb Code   112  eng_err.o(i.Cal_Gp_Relaod)
    Cal_STD_ENG_CNT_VAL                      0x00001695   Thumb Code   252  eng_err.o(i.Cal_STD_ENG_CNT_VAL)
    Check_SMtr_Tab_Sts                       0x000017c5   Thumb Code   204  init.o(i.Check_SMtr_Tab_Sts)
    DZPLS_Interrupt_Pr                       0x0000189d   Thumb Code   124  interrupt_api.o(i.DZPLS_Interrupt_Pr)
    ELSC_PLS_IN_DEN                          0x0000193d   Thumb Code   166  eng_err.o(i.ELSC_PLS_IN_DEN)
    ENG_PLS_IN_Pr                            0x00001a09   Thumb Code    90  eng_err.o(i.ENG_PLS_IN_Pr)
    Ext_WDTFeed                              0x00001a75   Thumb Code    80  clk_err.o(i.Ext_WDTFeed)
    Fill_Space_StrCpy                        0x00001ad5   Thumb Code   166  init.o(i.Fill_Space_StrCpy)
    FlashErase                               0x00001b7d   Thumb Code    54  flash.o(i.FlashErase)
    GDT_PLS_IN_DEN                           0x00001bbd   Thumb Code   100  eng_err.o(i.GDT_PLS_IN_DEN)
    GPIOAHandler                             0x00001c3d   Thumb Code    96  interrupt_api.o(i.GPIOAHandler)
    GPIODirModeSet                           0x00001cb5   Thumb Code    50  gpio.o(i.GPIODirModeSet)
    GPIOIntClear                             0x00001ce7   Thumb Code     6  gpio.o(i.GPIOIntClear)
    GPIOIntDisable                           0x00001ced   Thumb Code    12  gpio.o(i.GPIOIntDisable)
    GPIOIntStatus                            0x00001cf9   Thumb Code    16  gpio.o(i.GPIOIntStatus)
    GPIOIntTypeSet                           0x00001d09   Thumb Code   102  gpio.o(i.GPIOIntTypeSet)
    GPIOMHandler                             0x00001d71   Thumb Code   386  interrupt_api.o(i.GPIOMHandler)
    GPIONHandler                             0x00001f75   Thumb Code    42  interrupt_api.o(i.GPIONHandler)
    GPIOPadConfigSet                         0x00001fb1   Thumb Code   342  gpio.o(i.GPIOPadConfigSet)
    GPIOPinConfigure                         0x00002109   Thumb Code    70  gpio.o(i.GPIOPinConfigure)
    GPIOPinRead                              0x00002159   Thumb Code    12  gpio.o(i.GPIOPinRead)
    GPIOPinTypeCAN                           0x00002165   Thumb Code    30  gpio.o(i.GPIOPinTypeCAN)
    GPIOPinTypeGPIOInput                     0x00002183   Thumb Code    30  gpio.o(i.GPIOPinTypeGPIOInput)
    GPIOPinTypeGPIOOutput                    0x000021a1   Thumb Code    30  gpio.o(i.GPIOPinTypeGPIOOutput)
    GPIOPinTypeI2C                           0x000021bf   Thumb Code    30  gpio.o(i.GPIOPinTypeI2C)
    GPIOPinTypeI2CSCL                        0x000021dd   Thumb Code    30  gpio.o(i.GPIOPinTypeI2CSCL)
    GPIOPinTypeSSI                           0x000021fb   Thumb Code    30  gpio.o(i.GPIOPinTypeSSI)
    GPIOPinTypeTimer                         0x00002219   Thumb Code    30  gpio.o(i.GPIOPinTypeTimer)
    GPIOPinTypeUART                          0x00002237   Thumb Code    30  gpio.o(i.GPIOPinTypeUART)
    GPIOPinWrite                             0x00002255   Thumb Code    10  gpio.o(i.GPIOPinWrite)
    Init_CAN0                                0x00002261   Thumb Code    62  init.o(i.Init_CAN0)
    Init_CAN1                                0x000022b1   Thumb Code    62  init.o(i.Init_CAN1)
    Init_Com                                 0x00002301   Thumb Code   208  init.o(i.Init_Com)
    Init_DEVICE_IO                           0x000023f5   Thumb Code   256  eng_err.o(i.Init_DEVICE_IO)
    Init_Gpio                                0x0000253d   Thumb Code   760  init.o(i.Init_Gpio)
    Init_Int                                 0x000028bd   Thumb Code   312  init.o(i.Init_Int)
    Init_Pll                                 0x000029f5   Thumb Code    26  init.o(i.Init_Pll)
    Init_Ram                                 0x00002a19   Thumb Code   734  init.o(i.Init_Ram)
    Init_Ssi                                 0x00002eed   Thumb Code    40  init.o(i.Init_Ssi)
    Init_SysTick                             0x00002f21   Thumb Code    36  init.o(i.Init_SysTick)
    Init_Timer                               0x00002f4d   Thumb Code   808  init.o(i.Init_Timer)
    Init_Uart                                0x00003299   Thumb Code    86  init.o(i.Init_Uart)
    Init_Wdt                                 0x000032fd   Thumb Code    82  init.o(i.Init_Wdt)
    IntEnable                                0x00003355   Thumb Code   108  interrupt.o(i.IntEnable)
    IntMasterDisable                         0x000033c9   Thumb Code    16  interrupt.o(i.IntMasterDisable)
    IntMasterEnable                          0x000033d9   Thumb Code    16  interrupt.o(i.IntMasterEnable)
    IntPrioritySet                           0x000033e9   Thumb Code    46  interrupt.o(i.IntPrioritySet)
    MFuction_Clk_Cfg                         0x0000341d   Thumb Code   312  eng_err.o(i.MFuction_Clk_Cfg)
    Mea_Period_Pr                            0x00003599   Thumb Code   210  interrupt_api.o(i.Mea_Period_Pr)
    Read_Mtr_Numb                            0x000036a5   Thumb Code   166  init.o(i.Read_Mtr_Numb)
    SSIConfigSetExpClk                       0x0000375d   Thumb Code   102  ssi.o(i.SSIConfigSetExpClk)
    SSIEnable                                0x000037c3   Thumb Code    10  ssi.o(i.SSIEnable)
    SZPLS_Interrupt_Pr                       0x000037cd   Thumb Code   166  interrupt_api.o(i.SZPLS_Interrupt_Pr)
    Set_CAN1MsgRam                           0x000038a9   Thumb Code    56  usr_lib.o(i.Set_CAN1MsgRam)
    Set_MsgRam                               0x000038e9   Thumb Code   232  usr_lib.o(i.Set_MsgRam)
    SysCtlClockGet                           0x000039d9   Thumb Code   244  sysctl.o(i.SysCtlClockGet)
    SysCtlClockSet                           0x00003ae1   Thumb Code   308  sysctl.o(i.SysCtlClockSet)
    SysCtlPeripheralEnable                   0x00003c2d   Thumb Code    46  sysctl.o(i.SysCtlPeripheralEnable)
    SysTickEnable                            0x00003c61   Thumb Code    18  systick.o(i.SysTickEnable)
    SysTickIntEnable                         0x00003c73   Thumb Code    18  systick.o(i.SysTickIntEnable)
    SysTickIntHandler                        0x00003c85   Thumb Code   124  interrupt_api.o(i.SysTickIntHandler)
    SysTickPeriodSet                         0x00003d25   Thumb Code    10  systick.o(i.SysTickPeriodSet)
    Timer0AIntHandler                        0x00003d31   Thumb Code    42  interrupt_api.o(i.Timer0AIntHandler)
    Timer0BIntHandler                        0x00003d61   Thumb Code    46  interrupt_api.o(i.Timer0BIntHandler)
    Timer1AIntHandler                        0x00003d95   Thumb Code    42  interrupt_api.o(i.Timer1AIntHandler)
    Timer1BIntHandler                        0x00003dc5   Thumb Code    70  interrupt_api.o(i.Timer1BIntHandler)
    Timer2AIntHandler                        0x00003e21   Thumb Code    80  interrupt_api.o(i.Timer2AIntHandler)
    Timer2BIntHandler                        0x00003e91   Thumb Code    46  interrupt_api.o(i.Timer2BIntHandler)
    Timer3AIntHandler                        0x00003ec5   Thumb Code    84  interrupt_api.o(i.Timer3AIntHandler)
    Timer3BIntHandler                        0x00003f25   Thumb Code    70  interrupt_api.o(i.Timer3BIntHandler)
    Timer4AIntHandler                        0x00003f79   Thumb Code   104  interrupt_api.o(i.Timer4AIntHandler)
    Timer4BIntHandler                        0x00003fed   Thumb Code   132  interrupt_api.o(i.Timer4BIntHandler)
    Timer5AIntHandler                        0x00004081   Thumb Code   122  interrupt_api.o(i.Timer5AIntHandler)
    TimerConfigure                           0x0000410d   Thumb Code    84  timer.o(i.TimerConfigure)
    TimerControlEvent                        0x0000416d   Thumb Code    22  timer.o(i.TimerControlEvent)
    TimerControlStall                        0x00004183   Thumb Code    22  timer.o(i.TimerControlStall)
    TimerDisable                             0x00004199   Thumb Code    14  timer.o(i.TimerDisable)
    TimerEnable                              0x000041a7   Thumb Code    14  timer.o(i.TimerEnable)
    TimerIntClear                            0x000041b5   Thumb Code     4  timer.o(i.TimerIntClear)
    TimerIntEnable                           0x000041b9   Thumb Code     8  timer.o(i.TimerIntEnable)
    TimerIntStatus                           0x000041c1   Thumb Code    12  timer.o(i.TimerIntStatus)
    TimerLoadSet                             0x000041cd   Thumb Code    16  timer.o(i.TimerLoadSet)
    TimerMatchSet                            0x000041dd   Thumb Code    16  timer.o(i.TimerMatchSet)
    TimerValueGet                            0x000041ed   Thumb Code    14  timer.o(i.TimerValueGet)
    UART0IntHandler                          0x000041fd   Thumb Code   286  interrupt_api.o(i.UART0IntHandler)
    UART1IntHandler                          0x00004349   Thumb Code   286  interrupt_api.o(i.UART1IntHandler)
    UART3IntHandler                          0x00004495   Thumb Code   286  interrupt_api.o(i.UART3IntHandler)
    UART5IntHandler                          0x000045e1   Thumb Code   286  interrupt_api.o(i.UART5IntHandler)
    UART6IntHandler                          0x0000472d   Thumb Code   286  interrupt_api.o(i.UART6IntHandler)
    UARTCharGet                              0x00004879   Thumb Code    18  uart.o(i.UARTCharGet)
    UARTCharPut                              0x0000488b   Thumb Code    16  uart.o(i.UARTCharPut)
    UARTCharsAvail                           0x0000489b   Thumb Code    12  uart.o(i.UARTCharsAvail)
    UARTConfigSetExpClk                      0x000048a7   Thumb Code    76  uart.o(i.UARTConfigSetExpClk)
    UARTDisable                              0x000048f3   Thumb Code    32  uart.o(i.UARTDisable)
    UARTEnable                               0x00004913   Thumb Code    20  uart.o(i.UARTEnable)
    UARTFIFOLevelSet                         0x00004927   Thumb Code     8  uart.o(i.UARTFIFOLevelSet)
    UARTIntClear                             0x0000492f   Thumb Code     4  uart.o(i.UARTIntClear)
    UARTIntEnable                            0x00004933   Thumb Code     8  uart.o(i.UARTIntEnable)
    UARTIntStatus                            0x0000493b   Thumb Code    12  uart.o(i.UARTIntStatus)
    Update_Mtr_Num                           0x00004949   Thumb Code    92  disp.o(i.Update_Mtr_Num)
    Update_N_Buf                             0x000049b5   Thumb Code   126  disp.o(i.Update_N_Buf)
    WDTFeed                                  0x00004a51   Thumb Code    24  usr_lib.o(i.WDTFeed)
    WatchDogHandler                          0x00004a69   Thumb Code    12  interrupt_api.o(i.WatchDogHandler)
    WatchdogEnable                           0x00004a75   Thumb Code    10  watchdog.o(i.WatchdogEnable)
    WatchdogIntClear                         0x00004a7f   Thumb Code     6  watchdog.o(i.WatchdogIntClear)
    WatchdogReloadGet                        0x00004a85   Thumb Code     6  watchdog.o(i.WatchdogReloadGet)
    WatchdogReloadSet                        0x00004a8b   Thumb Code     4  watchdog.o(i.WatchdogReloadSet)
    WatchdogResetEnable                      0x00004a8f   Thumb Code    10  watchdog.o(i.WatchdogResetEnable)
    WatchdogStallEnable                      0x00004a99   Thumb Code    14  watchdog.o(i.WatchdogStallEnable)
    WatchdogUnlock                           0x00004aa9   Thumb Code     8  watchdog.o(i.WatchdogUnlock)
    __0sprintf                               0x00004ab5   Thumb Code    34  printfa.o(i.__0sprintf)
    __1sprintf                               0x00004ab5   Thumb Code     0  printfa.o(i.__0sprintf)
    __2sprintf                               0x00004ab5   Thumb Code     0  printfa.o(i.__0sprintf)
    __c89sprintf                             0x00004ab5   Thumb Code     0  printfa.o(i.__0sprintf)
    sprintf                                  0x00004ab5   Thumb Code     0  printfa.o(i.__0sprintf)
    __scatterload_copy                       0x00004add   Thumb Code    14  handlers.o(i.__scatterload_copy)
    __scatterload_null                       0x00004aeb   Thumb Code     2  handlers.o(i.__scatterload_null)
    __scatterload_zeroinit                   0x00004aed   Thumb Code    14  handlers.o(i.__scatterload_zeroinit)
    main                                     0x000053b9   Thumb Code    84  main.o(i.main)
    VER_TAB                                  0x0000591c   Data          10  init.o(.constdata)
    Parity_Set_TAB                           0x00005926   Data           5  init.o(.constdata)
    UART_PARA_TAB                            0x0000592c   Data          20  init.o(.constdata)
    CAN_MSG_SET_TAB                          0x00005940   Data         156  init.o(.constdata)
    CAN1_MSG_SET_TAB                         0x000059dc   Data          36  init.o(.constdata)
    UART_PORT                                0x00005a00   Data          32  uart_api.o(.constdata)
    PORT_BASE_ADDR_TAB                       0x00005a20   Data          56  eng_err.o(.constdata)
    CYCLE_PORT_TAB                           0x00005a58   Data          20  eng_err.o(.constdata)
    CYCLE_PIN_TAB                            0x00005a6c   Data           5  eng_err.o(.constdata)
    IO_Timer_Tab                             0x00005a74   Data          24  eng_err.o(.constdata)
    IO_REEN_TAB                              0x00005a8c   Data          28  eng_err.o(.constdata)
    ESwitch_PORT_TAB                         0x00005aa8   Data          12  eng_err.o(.constdata)
    ESwitch_PIN_TAB                          0x00005ab4   Data          12  eng_err.o(.constdata)
    Region$$Table$$Base                      0x00005ac0   Number         0  anon$$obj.o(Region$$Table)
    Region$$Table$$Limit                     0x00005ae0   Number         0  anon$$obj.o(Region$$Table)
    SINGLE_OR_THREE                          0x20000000   Data           4  bitvari.o(.data)
    NEW_ENG_PLS                              0x20000004   Data           4  bitvari.o(.data)
    NEW_CLK_PLS                              0x20000008   Data           4  bitvari.o(.data)
    NEW_XUL_PLS                              0x2000000c   Data           4  bitvari.o(.data)
    FIRST_ENG_PLS                            0x20000010   Data           4  bitvari.o(.data)
    FIRST_CLK_PLS                            0x20000014   Data           4  bitvari.o(.data)
    FIRST_XUL_PLS                            0x20000018   Data           4  bitvari.o(.data)
    OVER_ERR_FLAG                            0x2000001c   Data           4  bitvari.o(.data)
    NEW_ENG_DATA                             0x20000020   Data           4  bitvari.o(.data)
    BEEP_EN                                  0x20000024   Data           4  bitvari.o(.data)
    MTR_PLUG                                 0x20000028   Data           4  bitvari.o(.data)
    GDT_RST_FLAG                             0x2000002c   Data           4  bitvari.o(.data)
    NEW_CMD                                  0x20000030   Data           4  bitvari.o(.data)
    HB_BACK_EDGE                             0x20000034   Data           4  bitvari.o(.data)
    SY_START                                 0x20000038   Data           4  bitvari.o(.data)
    ZZ_PLS_LOADED                            0x2000003c   Data           4  bitvari.o(.data)
    HB_CATCHED                               0x20000040   Data           4  bitvari.o(.data)
    VERIFY_END                               0x20000044   Data           4  bitvari.o(.data)
    SY_ACT                                   0x20000048   Data           4  bitvari.o(.data)
    RISE_FALL_LVL                            0x2000004c   Data           4  bitvari.o(.data)
    ENG_STB_CHK                              0x20000050   Data           4  bitvari.o(.data)
    SCLK_STB_CHK                             0x20000054   Data           4  bitvari.o(.data)
    OCLK_STB_CHK                             0x20000058   Data           4  bitvari.o(.data)
    XUL_STB_CHK                              0x2000005c   Data           4  bitvari.o(.data)
    NO_STD_CLK                               0x20000060   Data           4  bitvari.o(.data)
    NO_CLK_PLS                               0x20000064   Data           4  bitvari.o(.data)
    NO_STD_ENG                               0x20000068   Data           4  bitvari.o(.data)
    DISP_HL_LVL                              0x2000006c   Data           4  bitvari.o(.data)
    PULSE_ZZ_END                             0x20000070   Data           4  bitvari.o(.data)
    NEW_WZHZ_PLS                             0x20000074   Data           4  bitvari.o(.data)
    NEW_NZHZ_PLS                             0x20000078   Data           4  bitvari.o(.data)
    NEW_TQ_PLS                               0x2000007c   Data           4  bitvari.o(.data)
    NEW_MBJ_PLS                              0x20000080   Data           4  bitvari.o(.data)
    NEW_JBJ_PLS                              0x20000084   Data           4  bitvari.o(.data)
    REF_JZ_INT                               0x20000088   Data           4  bitvari.o(.data)
    RST_FLAG                                 0x2000008c   Data           4  bitvari.o(.data)
    NEW_LUNCI1_PLS                           0x20000090   Data           4  bitvari.o(.data)
    NEW_LUNCI2_PLS                           0x20000094   Data           4  bitvari.o(.data)
    NEW_LUNCI3_PLS                           0x20000098   Data           4  bitvari.o(.data)
    NEW_LUNCI4_PLS                           0x2000009c   Data           4  bitvari.o(.data)
    TX_ZS_BIT                                0x200000a0   Data           4  bitvari.o(.data)
    SZCLK_SET_TooM_T                         0x200000a4   Data           4  bitvari.o(.data)
    SZCLK_SET_TooM                           0x200000a8   Data           4  bitvari.o(.data)
    NEW_KEY_FLAG                             0x200000ac   Data           4  bitvari.o(.data)
    PLUG_CHG_FLAG                            0x200000b0   Data           4  bitvari.o(.data)
    CD4094_FLAG                              0x200000b4   Data           4  bitvari.o(.data)
    KEY_PC_PLUG                              0x200000b8   Data           4  bitvari.o(.data)
    TZEN                                     0x200000bc   Data           4  bitvari.o(.data)
    MBJEN                                    0x200000c0   Data           4  bitvari.o(.data)
    GZ_FLAG                                  0x200000c4   Data           4  bitvari.o(.data)
    GZS_FLAG                                 0x200000c8   Data           4  bitvari.o(.data)
    NZTZ_FLAG                                0x200000cc   Data           4  bitvari.o(.data)
    WZTZ_FLAG                                0x200000d0   Data           4  bitvari.o(.data)
    MASTER_START                             0x200000d4   Data           4  bitvari.o(.data)
    GDT_INT_REEN                             0x200000d8   Data           4  bitvari.o(.data)
    DZ_INT_REEN                              0x200000dc   Data           4  bitvari.o(.data)
    SZ_INT_REEN                              0x200000e0   Data           4  bitvari.o(.data)
    XUL_INT_REEN                             0x200000e4   Data           4  bitvari.o(.data)
    TQ_INT_REEN                              0x200000e8   Data           4  bitvari.o(.data)
    HZ_INT_REEN                              0x200000ec   Data           4  bitvari.o(.data)
    KEY_INT_REEN                             0x200000f0   Data           4  bitvari.o(.data)
    CAN_ERR                                  0x200000f4   Data           4  bitvari.o(.data)
    CAN1_ERR                                 0x200000f8   Data           4  bitvari.o(.data)
    I_JDQ                                    0x200000fc   Data           4  bitvari.o(.data)
    I_JDQ_CHG                                0x20000100   Data           4  bitvari.o(.data)
    I_JDQ_EN                                 0x20000104   Data           4  bitvari.o(.data)
    UJDQ_FLAG                                0x20000108   Data           4  bitvari.o(.data)
    ESwitch_FLAG                             0x2000010c   Data           4  bitvari.o(.data)
    DZ_NEW_PLS                               0x20000110   Data           4  bitvari.o(.data)
    GD_NEW_PLS                               0x20000114   Data           4  bitvari.o(.data)
    SZ_NEW_PLS                               0x20000118   Data           4  bitvari.o(.data)
    NZTZ_NEW_PLS                             0x2000011c   Data           4  bitvari.o(.data)
    ENT_XY_PLS                               0x20000120   Data           4  bitvari.o(.data)
    DIS_UNSTD_PLS                            0x20000124   Data           4  bitvari.o(.data)
    DIS_STD_PLS                              0x20000128   Data           4  bitvari.o(.data)
    LIGHT_CTL_PC                             0x2000012c   Data           4  bitvari.o(.data)
    Pulse1_RUN_CTL                           0x20000130   Data           4  bitvari.o(.data)
    Pulse2_RUN_CTL                           0x20000134   Data           4  bitvari.o(.data)
    Pulse3_RUN_CTL                           0x20000138   Data           4  bitvari.o(.data)
    Pulse4_RUN_CTL                           0x2000013c   Data           4  bitvari.o(.data)
    Pulse5_RUN_CTL                           0x20000140   Data           4  bitvari.o(.data)
    Pulse6_RUN_CTL                           0x20000144   Data           4  bitvari.o(.data)
    Pulse7_RUN_CTL                           0x20000148   Data           4  bitvari.o(.data)
    Pulse8_RUN_CTL                           0x2000014c   Data           4  bitvari.o(.data)
    PulOut1_RVS_Bit                          0x20000150   Data           4  bitvari.o(.data)
    PulOut2_RVS_Bit                          0x20000154   Data           4  bitvari.o(.data)
    PulOut3_RVS_Bit                          0x20000158   Data           4  bitvari.o(.data)
    PulOut4_RVS_Bit                          0x2000015c   Data           4  bitvari.o(.data)
    PulOut5_RVS_Bit                          0x20000160   Data           4  bitvari.o(.data)
    PulOut6_RVS_Bit                          0x20000164   Data           4  bitvari.o(.data)
    PulOut7_RVS_Bit                          0x20000168   Data           4  bitvari.o(.data)
    PulOut8_RVS_Bit                          0x2000016c   Data           4  bitvari.o(.data)
    YKSIG_EN                                 0x20000170   Data           4  bitvari.o(.data)
    YKSIG_MOD                                0x20000174   Data           4  bitvari.o(.data)
    YKSIG_TRG_MOD                            0x20000178   Data           4  bitvari.o(.data)
    GZ_CHECK_FLAG                            0x2000017c   Data           4  bitvari.o(.data)
    TTAB_JDQ_CHG                             0x20000180   Data           4  bitvari.o(.data)
    TTAB_JDQ_DELY                            0x20000184   Data           4  bitvari.o(.data)
    SysRCC_CFG                               0x20000188   Data           4  vari.o(.data)
    SOLID_CFG                                0x2000018c   Data           4  vari.o(.data)
    MTYPE                                    0x20000190   Data           1  vari.o(.data)
    EXT_WDFEED_CNT                           0x20000191   Data           1  vari.o(.data)
    MTR_RDY_DATA                             0x20000192   Data           1  vari.o(.data)
    Current_Save_Tab                         0x20000193   Data           1  vari.o(.data)
    PLL_ERR_Cnt                              0x20000194   Data           1  vari.o(.data)
    Set_Uclop                                0x20000195   Data           1  vari.o(.data)
    Pwr_Phase                                0x20000196   Data           1  vari.o(.data)
    DXTZ                                     0x20000197   Data           1  vari.o(.data)
    MBJ_DATA                                 0x20000198   Data           1  vari.o(.data)
    LUNCI1_DATA                              0x20000199   Data           2  vari.o(.data)
    LUNCI2_DATA                              0x2000019b   Data           2  vari.o(.data)
    LUNCI3_DATA                              0x2000019d   Data           2  vari.o(.data)
    LUNCI4_DATA                              0x2000019f   Data           2  vari.o(.data)
    LUNCI1_SEND_COUNT                        0x200001a1   Data           1  vari.o(.data)
    LUNCI2_SEND_COUNT                        0x200001a2   Data           1  vari.o(.data)
    LUNCI3_SEND_COUNT                        0x200001a3   Data           1  vari.o(.data)
    LUNCI4_SEND_COUNT                        0x200001a4   Data           1  vari.o(.data)
    WZHZ_DATA                                0x200001a5   Data           2  vari.o(.data)
    GZ_DATA                                  0x200001a7   Data           1  vari.o(.data)
    NZHZ_DATA                                0x200001a8   Data           1  vari.o(.data)
    HC165_DATA                               0x200001aa   Data           2  vari.o(.data)
    HC165_TDATA                              0x200001ac   Data           2  vari.o(.data)
    HC165_XDATA                              0x200001ae   Data           2  vari.o(.data)
    NY_RESULT                                0x200001b0   Data           1  vari.o(.data)
    TIME_ASC                                 0x200001b1   Data           8  vari.o(.data)
    PLSGD                                    0x200001b9   Data           1  vari.o(.data)
    MFClk_Mode                               0x200001ba   Data           1  vari.o(.data)
    MFClk_Type                               0x200001bb   Data           1  vari.o(.data)
    PLSHC_MODE                               0x200001bc   Data           1  vari.o(.data)
    PLS_QUAD                                 0x200001bd   Data           1  vari.o(.data)
    Disp_Choose                              0x200001be   Data           1  vari.o(.data)
    Disp_Code_Mode                           0x200001bf   Data           1  vari.o(.data)
    ELEC_PLS_CNT                             0x200001c0   Data           2  vari.o(.data)
    CURRENT_N_ASC                            0x200001c2   Data           2  vari.o(.data)
    PLS_Lvl_Time                             0x200001c4   Data           8  vari.o(.data)
    High_Lvl_Time_Tp                         0x200001cc   Data           4  vari.o(.data)
    Low_Lvl_Time_Tp                          0x200001d0   Data           4  vari.o(.data)
    High_Lvl_CNT                             0x200001d4   Data           1  vari.o(.data)
    Low_Lvl_CNT                              0x200001d5   Data           1  vari.o(.data)
    CMD_DATA                                 0x200001d6   Data           1  vari.o(.data)
    WIRE_TYPE                                0x200001d7   Data           1  vari.o(.data)
    DIVIDE_Coef                              0x200001d8   Data           2  vari.o(.data)
    CYCLE_MEA_SEL                            0x200001da   Data           1  vari.o(.data)
    CYCLE_MEA_ID                             0x200001db   Data           1  vari.o(.data)
    SY_CNT                                   0x200001dc   Data           1  vari.o(.data)
    SY_PROCESS                               0x200001dd   Data           1  vari.o(.data)
    SY_MODE                                  0x200001de   Data           1  vari.o(.data)
    SY_PHASE                                 0x200001df   Data           1  vari.o(.data)
    PZZS                                     0x200001e0   Data           1  vari.o(.data)
    PZBZ                                     0x200001e1   Data           1  vari.o(.data)
    PZ_STD_CNT                               0x200001e2   Data           1  vari.o(.data)
    CUR_PZ_Cnt_Val                           0x200001e4   Data           2  vari.o(.data)
    PRE_PZ_Cnt_Val                           0x200001e6   Data           2  vari.o(.data)
    PZ_ERR_ASC                               0x200001e8   Data           3  vari.o(.data)
    VERIFY_ENG_Kwh                           0x200001ec   Data           4  vari.o(.data)
    VERIFY_PLS_Set                           0x200001f0   Data           4  vari.o(.data)
    CURRENT_VERIFY_PLS                       0x200001f4   Data           4  vari.o(.data)
    ZZ_PLS_Set                               0x200001f8   Data           4  vari.o(.data)
    CURRENT_PLS_CNT                          0x200001fc   Data           4  vari.o(.data)
    CURRENT_ENG_KWh                          0x20000200   Data           4  vari.o(.data)
    GP_ENG_CST                               0x20000204   Data           4  vari.o(.data)
    GP_CLK_SET                               0x20000208   Data           4  vari.o(.data)
    GP_CLK_ACT                               0x2000020c   Data           4  vari.o(.data)
    GP_RELOAD_TIME                           0x20000210   Data           2  vari.o(.data)
    GP_RELOAD_VAL                            0x20000212   Data           2  vari.o(.data)
    GP_RELOAD_Cnt                            0x20000214   Data           2  vari.o(.data)
    STD_CLK_Cnt                              0x20000218   Data           4  vari.o(.data)
    CLK_MEA_CTL                              0x2000021c   Data           1  vari.o(.data)
    CLK_RELOAD_TIME_N                        0x2000021e   Data           2  vari.o(.data)
    CLK_RELOAD_TIME_O                        0x20000220   Data           2  vari.o(.data)
    CLK_RELOAD_VAL_N                         0x20000222   Data           2  vari.o(.data)
    CLK_RELOAD_VAL_O                         0x20000224   Data           2  vari.o(.data)
    CLK_RELOAD_Cnt                           0x20000226   Data           2  vari.o(.data)
    CLK_MEA_TIME                             0x20000228   Data           1  vari.o(.data)
    CLK_FREQ_SET                             0x2000022c   Data           4  vari.o(.data)
    CLK_FREQ_INT                             0x20000230   Data           4  vari.o(.data)
    CLK_DAY_ERR                              0x20000238   Data           8  vari.o(.data)
    CLK_ACT_FREQ                             0x20000240   Data           8  vari.o(.data)
    STD_CLK_VAL_ONE                          0x20000248   Data           8  vari.o(.data)
    STD_CLK_VAL_SUM                          0x20000250   Data           8  vari.o(.data)
    STD_CLK_CNT_ONE                          0x20000258   Data           4  vari.o(.data)
    STD_CLK_CNT_SUM                          0x2000025c   Data           4  vari.o(.data)
    RAW_CLK_VAL                              0x20000260   Data           4  vari.o(.data)
    CUR_CLK_VAL                              0x20000264   Data           4  vari.o(.data)
    PRE_CLK_VAL                              0x20000268   Data           4  vari.o(.data)
    SCLK_Cnt_OSub                            0x2000026c   Data           4  vari.o(.data)
    SCLK_Cnt_NSub                            0x20000270   Data           4  vari.o(.data)
    SCLK_Cnt_RSet_Max                        0x20000274   Data           4  vari.o(.data)
    SCLK_STB_RNG                             0x20000278   Data           4  vari.o(.data)
    OCLK_Cnt_OSub                            0x2000027c   Data           4  vari.o(.data)
    OCLK_Cnt_NSub                            0x20000280   Data           4  vari.o(.data)
    OCLK_Cnt_RSet_Max                        0x20000284   Data           4  vari.o(.data)
    OCLK_STB_RNG                             0x20000288   Data           4  vari.o(.data)
    XUL_MEA_CTL                              0x2000028c   Data           1  vari.o(.data)
    XUL_TIME                                 0x20000290   Data           4  vari.o(.data)
    XUL_RELOAD_TIME                          0x20000294   Data           1  vari.o(.data)
    XUL_RELOAD_Cnt                           0x20000295   Data           1  vari.o(.data)
    XUL_Cnt_Sum                              0x20000298   Data           8  vari.o(.data)
    RAW_XUL_VAL                              0x200002a0   Data           4  vari.o(.data)
    CUR_XUL_VAL                              0x200002a4   Data           4  vari.o(.data)
    PRE_XUL_VAL                              0x200002a8   Data           4  vari.o(.data)
    SXUL_Cnt_OSub                            0x200002ac   Data           4  vari.o(.data)
    SXUL_Cnt_NSub                            0x200002b0   Data           4  vari.o(.data)
    OXUL_Cnt_OSub                            0x200002b4   Data           4  vari.o(.data)
    OXUL_Cnt_NSub                            0x200002b8   Data           4  vari.o(.data)
    ENG_CLK_CH                               0x200002bc   Data           1  vari.o(.data)
    WORK_MODE                                0x200002bd   Data           1  vari.o(.data)
    ENG_STB_RNG                              0x200002be   Data           2  vari.o(.data)
    STD_ENG_CNT_VAL                          0x200002c0   Data           4  vari.o(.data)
    STD_ENG_CST                              0x200002c4   Data           4  vari.o(.data)
    MTR_ENG_CST                              0x200002c8   Data           4  vari.o(.data)
    MTR_MIN_CST                              0x200002cc   Data           4  vari.o(.data)
    CURRENT_N                                0x200002d0   Data           1  vari.o(.data)
    ACT_N                                    0x200002d1   Data           1  vari.o(.data)
    SET_N                                    0x200002d2   Data           1  vari.o(.data)
    STD_ENG_Cnt                              0x200002d4   Data           4  vari.o(.data)
    CUR_ENG_VAL                              0x200002d8   Data           4  vari.o(.data)
    PRE_ENG_VAL                              0x200002dc   Data           4  vari.o(.data)
    RAW_ENG_VAL                              0x200002e0   Data           4  vari.o(.data)
    SENG_STB_RNG                             0x200002e4   Data           2  vari.o(.data)
    OEND_Cnt_OSub                            0x200002e8   Data           4  vari.o(.data)
    OEND_Cnt_NSub                            0x200002ec   Data           4  vari.o(.data)
    OEND_STB_RNG                             0x200002f0   Data           2  vari.o(.data)
    ENG_ERR                                  0x200002f4   Data           4  vari.o(.data)
    Mtr_Numb_ID                              0x200002f8   Data           1  vari.o(.data)
    Mtr_Numb_Str                             0x200002f9   Data           3  vari.o(.data)
    MTR_MOD                                  0x200002fc   Data           1  vari.o(.data)
    TTAB_JDQ_STS                             0x200002fd   Data           1  vari.o(.data)
    Sysclk                                   0x20000300   Data           4  vari.o(.data)
    ADC_Start                                0x20000304   Data           1  vari.o(.data)
    ADC_Data                                 0x20000306   Data           2  vari.o(.data)
    ADC_Timer                                0x20000308   Data           2  vari.o(.data)
    ADC0_Vref                                0x2000030c   Data           4  vari.o(.data)
    ADC0_XiuZ                                0x20000310   Data           4  vari.o(.data)
    Timer_1ms                                0x20000314   Data           4  vari.o(.data)
    CLK_Timer                                0x20000318   Data           4  vari.o(.data)
    Timer_8ms                                0x2000031c   Data           1  vari.o(.data)
    GDT_Timer                                0x2000031d   Data           1  vari.o(.data)
    DZ_Timer                                 0x2000031e   Data           1  vari.o(.data)
    SZ_Timer                                 0x2000031f   Data           1  vari.o(.data)
    XUL_Timer                                0x20000320   Data           1  vari.o(.data)
    TQ_Timer                                 0x20000321   Data           1  vari.o(.data)
    HZ_Timer                                 0x20000322   Data           1  vari.o(.data)
    KEY_Timer                                0x20000323   Data           1  vari.o(.data)
    HC165_Timer                              0x20000324   Data           1  vari.o(.data)
    PLL_CHK_Timer                            0x20000325   Data           1  vari.o(.data)
    GDT_PLS_Timer                            0x20000326   Data           1  vari.o(.data)
    DZ_PLS_Timer                             0x20000327   Data           1  vari.o(.data)
    SZ_PLS_Timer                             0x20000328   Data           1  vari.o(.data)
    EXT_WD_Timer                             0x20000329   Data           1  vari.o(.data)
    NZTZ_PLS_Timer                           0x2000032a   Data           1  vari.o(.data)
    CYCLE_OLD_Timer                          0x2000032c   Data           4  vari.o(.data)
    CYCLE_NEW_Timer                          0x20000330   Data           4  vari.o(.data)
    CLK_Timer_Max                            0x20000334   Data           4  vari.o(.data)
    CLK_Timer_Min                            0x20000338   Data           4  vari.o(.data)
    SY_Timer                                 0x2000033c   Data           2  vari.o(.data)
    NY_SEND_Timer                            0x2000033e   Data           2  vari.o(.data)
    CAN_STX_OVTimer                          0x20000340   Data           2  vari.o(.data)
    CAN1_STX_OVTimer                         0x20000342   Data           2  vari.o(.data)
    CAN_LTX_OVTimer                          0x20000344   Data           2  vari.o(.data)
    CAN_RX_OVTimer                           0x20000346   Data           2  vari.o(.data)
    CAN1_RX_OVTimer                          0x20000348   Data           2  vari.o(.data)
    WORK_Timer                               0x2000034a   Data           2  vari.o(.data)
    STD_ECLK_Timer                           0x2000034c   Data           2  vari.o(.data)
    MBJ_Send_Timer                           0x2000034e   Data           2  vari.o(.data)
    WZTZ_Send_Timer                          0x20000350   Data           2  vari.o(.data)
    NZTZ_Send_Timer                          0x20000352   Data           2  vari.o(.data)
    OPEN_IN_Timer                            0x20000354   Data           2  vari.o(.data)
    NEW_PLL_Ref_Timer                        0x20000356   Data           2  vari.o(.data)
    OLD_PLL_Ref_Timer                        0x20000358   Data           2  vari.o(.data)
    MTR_ON_Timer                             0x2000035a   Data           2  vari.o(.data)
    TTAB_JDQ_DELY_Timer                      0x2000035c   Data           2  vari.o(.data)
    LUNCI1_Send_Timer                        0x2000035e   Data           2  vari.o(.data)
    LUNCI2_Send_Timer                        0x20000360   Data           2  vari.o(.data)
    LUNCI3_Send_Timer                        0x20000362   Data           2  vari.o(.data)
    LUNCI4_Send_Timer                        0x20000364   Data           2  vari.o(.data)
    PulOut1_Timer                            0x20000366   Data           2  vari.o(.data)
    PulOut2_Timer                            0x20000368   Data           2  vari.o(.data)
    PulOut3_Timer                            0x2000036a   Data           2  vari.o(.data)
    PulOut4_Timer                            0x2000036c   Data           2  vari.o(.data)
    PulOut5_Timer                            0x2000036e   Data           2  vari.o(.data)
    PulOut6_Timer                            0x20000370   Data           2  vari.o(.data)
    PulOut7_Timer                            0x20000372   Data           2  vari.o(.data)
    PulOut8_Timer                            0x20000374   Data           2  vari.o(.data)
    PulOut1_Count                            0x20000376   Data           2  vari.o(.data)
    PulOut2_Count                            0x20000378   Data           2  vari.o(.data)
    PulOut3_Count                            0x2000037a   Data           2  vari.o(.data)
    PulOut4_Count                            0x2000037c   Data           2  vari.o(.data)
    PulOut5_Count                            0x2000037e   Data           2  vari.o(.data)
    PulOut6_Count                            0x20000380   Data           2  vari.o(.data)
    PulOut7_Count                            0x20000382   Data           2  vari.o(.data)
    PulOut8_Count                            0x20000384   Data           2  vari.o(.data)
    PulOut1_Count_Set                        0x20000386   Data           2  vari.o(.data)
    PulOut2_Count_Set                        0x20000388   Data           2  vari.o(.data)
    PulOut3_Count_Set                        0x2000038a   Data           2  vari.o(.data)
    PulOut4_Count_Set                        0x2000038c   Data           2  vari.o(.data)
    PulOut5_Count_Set                        0x2000038e   Data           2  vari.o(.data)
    PulOut6_Count_Set                        0x20000390   Data           2  vari.o(.data)
    PulOut7_Count_Set                        0x20000392   Data           2  vari.o(.data)
    PulOut8_Count_Set                        0x20000394   Data           2  vari.o(.data)
    Disp_Timer                               0x20000396   Data           1  vari.o(.data)
    GDT_RST_Timer                            0x20000397   Data           1  vari.o(.data)
    Com_Rx_Time                              0x20000398   Data           5  vari.o(.data)
    Com_Rx_OvTm                              0x2000039d   Data           5  vari.o(.data)
    UJDQ_Timer                               0x200003a2   Data           1  vari.o(.data)
    IJDQ_Timer                               0x200003a3   Data           1  vari.o(.data)
    ESwitch_Timer                            0x200003a4   Data           1  vari.o(.data)
    NY_CHK_Timer                             0x200003a5   Data           1  vari.o(.data)
    Con_KEY_Timer                            0x200003a6   Data           1  vari.o(.data)
    Disp_En_Timer                            0x200003a7   Data           1  vari.o(.data)
    STD_CLK_Timer                            0x200003a8   Data           1  vari.o(.data)
    TTAB_JDQ_CHG_Timer                       0x200003a9   Data           1  vari.o(.data)
    Disp_Buf                                 0x200003aa   Data           8  vari.o(.data)
    CANERR_RxCNT                             0x200003b4   Data           4  vari.o(.data)
    CANERR_TxCNT                             0x200003b8   Data           4  vari.o(.data)
    CAN_LMSG_TX_TYPE                         0x200003bc   Data           1  vari.o(.data)
    CAN_LMSG_RX_TYPE                         0x200003bd   Data           1  vari.o(.data)
    CAN_STS                                  0x200003c0   Data           4  vari.o(.data)
    CAN1_STS                                 0x200003c4   Data           4  vari.o(.data)
    CAN_LDATA_TX_STS                         0x200003c8   Data           1  vari.o(.data)
    CAN_NEXT_MSG_IDx                         0x200003c9   Data           1  vari.o(.data)
    CAN_LMSG_TX_STS                          0x200003ca   Data           1  vari.o(.data)
    CAN_SMSG_TX_STS                          0x200003cb   Data           1  vari.o(.data)
    CAN1_SMSG_TX_STS                         0x200003cc   Data           1  vari.o(.data)
    Echo_Sts                                 0x200003cd   Data           1  vari.o(.data)
    CAN_SEND_DTIME                           0x200003ce   Data           1  vari.o(.data)
    CAN_SEND_DELAY                           0x200003cf   Data           1  vari.o(.data)
    CAN_SDATA_MSG_IHead                      0x200003d0   Data           1  vari.o(.data)
    CAN_SDATA_MSG_ITail                      0x200003d1   Data           1  vari.o(.data)
    CAN_MSG_IPtr                             0x200003d4   Data           4  vari.o(.data)
    CAN_SDATA_MSG_OHead                      0x200003d8   Data           1  vari.o(.data)
    CAN_SDATA_MSG_OTail                      0x200003d9   Data           1  vari.o(.data)
    CAN_MSG_OPtr                             0x200003dc   Data           4  vari.o(.data)
    CAN1_SDATA_MSG_IHead                     0x200003e0   Data           1  vari.o(.data)
    CAN1_SDATA_MSG_ITail                     0x200003e1   Data           1  vari.o(.data)
    CAN1_MSG_IPtr                            0x200003e4   Data           4  vari.o(.data)
    CAN1_SDATA_MSG_OHead                     0x200003e8   Data           1  vari.o(.data)
    CAN1_SDATA_MSG_OTail                     0x200003e9   Data           1  vari.o(.data)
    CAN1_MSG_OPtr                            0x200003ec   Data           4  vari.o(.data)
    CAN_LDATA_MSG_IHead                      0x200003f0   Data           1  vari.o(.data)
    CAN_LDATA_MSG_ITail                      0x200003f1   Data           1  vari.o(.data)
    CAN_LDATA_SERR_Cnt                       0x200003f2   Data           1  vari.o(.data)
    Com_Rx_Sts                               0x200003f3   Data           5  vari.o(.data)
    Com_Tx_Sts                               0x200003f8   Data           5  vari.o(.data)
    CANT_STR                                 0x200003fd   Data           8  vari.o(.data)
    YaoXin1_Set                              0x20000406   Data           6  vari.o(.data)
    YaoXin2_Set                              0x2000040c   Data           6  vari.o(.data)
    YaoXin3_Set                              0x20000412   Data           6  vari.o(.data)
    YaoXin4_Set                              0x20000418   Data           6  vari.o(.data)
    YaoXin5_Set                              0x2000041e   Data           6  vari.o(.data)
    YaoXin6_Set                              0x20000424   Data           6  vari.o(.data)
    YaoXin7_Set                              0x2000042a   Data           6  vari.o(.data)
    YaoXin8_Set                              0x20000430   Data           6  vari.o(.data)
    Save_Tab_Sts                             0x20000438   Data         255  vari.o(.bss)
    ENG_ERR_ASC                              0x20000537   Data           9  vari.o(.bss)
    CLK_FREQ_ASC                             0x20000540   Data           9  vari.o(.bss)
    DAY_ERR_ASC                              0x20000549   Data           9  vari.o(.bss)
    XUL_TIME_ASC                             0x20000552   Data           9  vari.o(.bss)
    VERIFY_ENG_ASC                           0x2000055b   Data           9  vari.o(.bss)
    CURRENT_ENG_ASC                          0x20000564   Data           9  vari.o(.bss)
    CURRENT_PLS_ASC                          0x2000056d   Data           9  vari.o(.bss)
    HIGH_LVL_TIME                            0x20000576   Data           9  vari.o(.bss)
    LOW_LVL_TIME                             0x2000057f   Data           9  vari.o(.bss)
    ADC_SEQ_Data                             0x20000588   Data          32  vari.o(.bss)
    Uart_Para                                0x200005a8   Data          20  vari.o(.bss)
    CAN_LMSG_RX_Ptr                          0x200005bc   Data          16  vari.o(.bss)
    CAN_LMSG_TX_Ptr                          0x200005cc   Data          16  vari.o(.bss)
    CAN_MSG_Rx                               0x200005dc   Data          16  vari.o(.bss)
    CAN_SMSG_Tx                              0x200005ec   Data          16  vari.o(.bss)
    CAN_LMSG_Tx                              0x200005fc   Data          16  vari.o(.bss)
    CAN_SDATA_MSG_IBUF                       0x2000060c   Data         800  vari.o(.bss)
    CAN_SDATA_MSG_OBUF                       0x2000092c   Data         800  vari.o(.bss)
    CAN1_SDATA_MSG_IBUF                      0x20000c4c   Data         800  vari.o(.bss)
    CAN1_SDATA_MSG_OBUF                      0x20000f6c   Data         800  vari.o(.bss)
    CAN_LDATA_MSG_IBUF                       0x2000128c   Data         320  vari.o(.bss)
    Com0_IBuf                                0x200013cc   Data        2048  vari.o(.bss)
    Com0_OBuf                                0x20001bcc   Data        1024  vari.o(.bss)
    Com1_IBuf                                0x20001fcc   Data        2048  vari.o(.bss)
    Com1_OBuf                                0x200027cc   Data        1024  vari.o(.bss)
    Com3_IBuf                                0x20002bcc   Data        2048  vari.o(.bss)
    Com3_OBuf                                0x200033cc   Data        1024  vari.o(.bss)
    Com5_IBuf                                0x200037cc   Data        2048  vari.o(.bss)
    Com5_OBuf                                0x20003fcc   Data        1024  vari.o(.bss)
    Com6_IBuf                                0x200043cc   Data        2048  vari.o(.bss)
    Com6_OBuf                                0x20004bcc   Data        1024  vari.o(.bss)
    Com_IHead                                0x20004fcc   Data          10  vari.o(.bss)
    Com_ITail                                0x20004fd6   Data          10  vari.o(.bss)
    Com_OHead                                0x20004fe0   Data          10  vari.o(.bss)
    Com_OTail                                0x20004fea   Data          10  vari.o(.bss)
    TEMP_STR                                 0x20004ff4   Data          20  vari.o(.bss)
    __initial_sp                             0x20005408   Data           0  startup_rvmdk.o(STACK)



==============================================================================

Memory Map of the image

  Image Entry point : 0x00000299

  Load Region LR_IROM1 (Base: 0x00000000, Size: 0x00005f18, Max: 0x00040000, ABSOLUTE, COMPRESSED[0x00005aec])

    Execution Region ER_IROM1 (Base: 0x00000000, Size: 0x00005ae0, Max: 0x00040000, ABSOLUTE)

    Base Addr    Size         Type   Attr      Idx    E Section Name        Object

    0x00000000   0x00000298   Code   RO         2869    RESET               startup_rvmdk.o
    0x00000298   0x00000000   Code   RO         4475  * .ARM.Collect$$$$00000000  mc_w.l(entry.o)
    0x00000298   0x00000004   Code   RO         4783    .ARM.Collect$$$$00000001  mc_w.l(entry2.o)
    0x0000029c   0x00000004   Code   RO         4786    .ARM.Collect$$$$00000004  mc_w.l(entry5.o)
    0x000002a0   0x00000000   Code   RO         4788    .ARM.Collect$$$$00000008  mc_w.l(entry7b.o)
    0x000002a0   0x00000000   Code   RO         4790    .ARM.Collect$$$$0000000A  mc_w.l(entry8b.o)
    0x000002a0   0x00000008   Code   RO         4791    .ARM.Collect$$$$0000000B  mc_w.l(entry9a.o)
    0x000002a8   0x00000000   Code   RO         4793    .ARM.Collect$$$$0000000D  mc_w.l(entry10a.o)
    0x000002a8   0x00000000   Code   RO         4795    .ARM.Collect$$$$0000000F  mc_w.l(entry11a.o)
    0x000002a8   0x00000004   Code   RO         4784    .ARM.Collect$$$$00002712  mc_w.l(entry2.o)
    0x000002ac   0x00000006   Code   RO          184    .emb_text           sysctl.o
    0x000002b2   0x00000002   PAD
    0x000002b4   0x00000026   Code   RO         1828    .emb_text           cpu.o
    0x000002da   0x00000024   Code   RO         4480    .text               mc_w.l(memseta.o)
    0x000002fe   0x0000000e   Code   RO         4482    .text               mc_w.l(strlen.o)
    0x0000030c   0x00000064   Code   RO         4751    .text               mf_w.l(fmul.o)
    0x00000370   0x0000007c   Code   RO         4753    .text               mf_w.l(fdiv.o)
    0x000003ec   0x0000014e   Code   RO         4755    .text               mf_w.l(dadd.o)
    0x0000053a   0x000000e4   Code   RO         4757    .text               mf_w.l(dmul.o)
    0x0000061e   0x000000de   Code   RO         4759    .text               mf_w.l(ddiv.o)
    0x000006fc   0x0000000a   Code   RO         4761    .text               mf_w.l(ffltui.o)
    0x00000706   0x0000001a   Code   RO         4763    .text               mf_w.l(dfltui.o)
    0x00000720   0x00000028   Code   RO         4765    .text               mf_w.l(ffixui.o)
    0x00000748   0x0000003e   Code   RO         4767    .text               mf_w.l(dfixi.o)
    0x00000786   0x00000032   Code   RO         4769    .text               mf_w.l(dfixui.o)
    0x000007b8   0x00000026   Code   RO         4771    .text               mf_w.l(f2d.o)
    0x000007de   0x00000002   PAD
    0x000007e0   0x00000030   Code   RO         4775    .text               mf_w.l(cdrcmple.o)
    0x00000810   0x00000014   Code   RO         4779    .text               mf_w.l(cfcmple.o)
    0x00000824   0x00000014   Code   RO         4781    .text               mf_w.l(cfrcmple.o)
    0x00000838   0x0000002c   Code   RO         4800    .text               mc_w.l(uidiv.o)
    0x00000864   0x00000062   Code   RO         4802    .text               mc_w.l(uldiv.o)
    0x000008c6   0x0000001e   Code   RO         4804    .text               mc_w.l(llshl.o)
    0x000008e4   0x00000020   Code   RO         4806    .text               mc_w.l(llushr.o)
    0x00000904   0x00000024   Code   RO         4808    .text               mc_w.l(llsshr.o)
    0x00000928   0x00000000   Code   RO         4810    .text               mc_w.l(iusefp.o)
    0x00000928   0x0000006e   Code   RO         4811    .text               mf_w.l(fepilogue.o)
    0x00000996   0x000000ba   Code   RO         4813    .text               mf_w.l(depilogue.o)
    0x00000a50   0x00000030   Code   RO         4815    .text               mf_w.l(dfixul.o)
    0x00000a80   0x00000024   Code   RO         4817    .text               mc_w.l(init.o)
    0x00000aa4   0x0000003a   Code   RO         4829    .text               mc_w.l(__dczerorl.o)
    0x00000ade   0x00000002   PAD
    0x00000ae0   0x0000004c   Code   RO         3353    i.ADC0Handler       interrupt_api.o
    0x00000b2c   0x00000008   Code   RO         2629    i.ADCIntClear       adc.o
    0x00000b34   0x00000022   Code   RO         2647    i.ADCSequenceDataGet  adc.o
    0x00000b56   0x00000002   PAD
    0x00000b58   0x000001ac   Code   RO         3354    i.CAN0Handler       interrupt_api.o
    0x00000d04   0x00000002   Code   RO         3355    i.CAN1Handler       interrupt_api.o
    0x00000d06   0x0000017c   Code   RO         4399    i.CAN1_RxMsg_Set    usr_lib.o
    0x00000e82   0x00000002   PAD
    0x00000e84   0x00000078   Code   RO         1685    i.CANBitRateSet     can.o
    0x00000efc   0x00000024   Code   RO         4402    i.CANDataRegRead    usr_lib.o
    0x00000f20   0x0000000a   Code   RO         1688    i.CANDisable        can.o
    0x00000f2a   0x0000000a   Code   RO         1689    i.CANEnable         can.o
    0x00000f34   0x00000020   Code   RO         1690    i.CANErrCntrGet     can.o
    0x00000f54   0x00000052   Code   RO         1691    i.CANInit           can.o
    0x00000fa6   0x0000002e   Code   RO         1692    i.CANIntClear       can.o
    0x00000fd4   0x00000008   Code   RO         1694    i.CANIntEnable      can.o
    0x00000fdc   0x00000026   Code   RO         1696    i.CANIntStatus      can.o
    0x00001002   0x0000004e   Code   RO         1703    i.CANStatusGet      can.o
    0x00001050   0x0000017c   Code   RO         4404    i.CAN_RxMsg_Set     usr_lib.o
    0x000011cc   0x000000ae   Code   RO         4405    i.CAN_Rx_Msg        usr_lib.o
    0x0000127a   0x00000002   PAD
    0x0000127c   0x00000394   Code   RO         3009    i.Cal_Clk_Reload    clk_err.o
    0x00001610   0x00000084   Code   RO         3604    i.Cal_Gp_Relaod     eng_err.o
    0x00001694   0x00000130   Code   RO         3605    i.Cal_STD_ENG_CNT_VAL  eng_err.o
    0x000017c4   0x000000d8   Code   RO         3234    i.Check_SMtr_Tab_Sts  init.o
    0x0000189c   0x000000a0   Code   RO         3356    i.DZPLS_Interrupt_Pr  interrupt_api.o
    0x0000193c   0x000000cc   Code   RO         3612    i.ELSC_PLS_IN_DEN   eng_err.o
    0x00001a08   0x0000006c   Code   RO         3615    i.ENG_PLS_IN_Pr     eng_err.o
    0x00001a74   0x00000060   Code   RO         3013    i.Ext_WDTFeed       clk_err.o
    0x00001ad4   0x000000a6   Code   RO         3235    i.Fill_Space_StrCpy  init.o
    0x00001b7a   0x00000002   PAD
    0x00001b7c   0x00000040   Code   RO         1979    i.FlashErase        flash.o
    0x00001bbc   0x00000080   Code   RO         3619    i.GDT_PLS_IN_DEN    eng_err.o
    0x00001c3c   0x00000078   Code   RO         3357    i.GPIOAHandler      interrupt_api.o
    0x00001cb4   0x00000032   Code   RO         2139    i.GPIODirModeSet    gpio.o
    0x00001ce6   0x00000006   Code   RO         2140    i.GPIOIntClear      gpio.o
    0x00001cec   0x0000000c   Code   RO         2141    i.GPIOIntDisable    gpio.o
    0x00001cf8   0x00000010   Code   RO         2144    i.GPIOIntStatus     gpio.o
    0x00001d08   0x00000066   Code   RO         2146    i.GPIOIntTypeSet    gpio.o
    0x00001d6e   0x00000002   PAD
    0x00001d70   0x00000204   Code   RO         3358    i.GPIOMHandler      interrupt_api.o
    0x00001f74   0x0000003c   Code   RO         3359    i.GPIONHandler      interrupt_api.o
    0x00001fb0   0x00000156   Code   RO         2149    i.GPIOPadConfigSet  gpio.o
    0x00002106   0x00000002   PAD
    0x00002108   0x00000050   Code   RO         2150    i.GPIOPinConfigure  gpio.o
    0x00002158   0x0000000c   Code   RO         2151    i.GPIOPinRead       gpio.o
    0x00002164   0x0000001e   Code   RO         2153    i.GPIOPinTypeCAN    gpio.o
    0x00002182   0x0000001e   Code   RO         2160    i.GPIOPinTypeGPIOInput  gpio.o
    0x000021a0   0x0000001e   Code   RO         2161    i.GPIOPinTypeGPIOOutput  gpio.o
    0x000021be   0x0000001e   Code   RO         2163    i.GPIOPinTypeI2C    gpio.o
    0x000021dc   0x0000001e   Code   RO         2164    i.GPIOPinTypeI2CSCL  gpio.o
    0x000021fa   0x0000001e   Code   RO         2174    i.GPIOPinTypeSSI    gpio.o
    0x00002218   0x0000001e   Code   RO         2175    i.GPIOPinTypeTimer  gpio.o
    0x00002236   0x0000001e   Code   RO         2176    i.GPIOPinTypeUART   gpio.o
    0x00002254   0x0000000a   Code   RO         2182    i.GPIOPinWrite      gpio.o
    0x0000225e   0x00000002   PAD
    0x00002260   0x00000050   Code   RO         3237    i.Init_CAN0         init.o
    0x000022b0   0x00000050   Code   RO         3238    i.Init_CAN1         init.o
    0x00002300   0x000000f4   Code   RO         3239    i.Init_Com          init.o
    0x000023f4   0x00000148   Code   RO         3624    i.Init_DEVICE_IO    eng_err.o
    0x0000253c   0x00000380   Code   RO         3240    i.Init_Gpio         init.o
    0x000028bc   0x00000138   Code   RO         3241    i.Init_Int          init.o
    0x000029f4   0x00000024   Code   RO         3242    i.Init_Pll          init.o
    0x00002a18   0x000004d4   Code   RO         3243    i.Init_Ram          init.o
    0x00002eec   0x00000034   Code   RO         3244    i.Init_Ssi          init.o
    0x00002f20   0x0000002c   Code   RO         3245    i.Init_SysTick      init.o
    0x00002f4c   0x0000034c   Code   RO         3246    i.Init_Timer        init.o
    0x00003298   0x00000064   Code   RO         3247    i.Init_Uart         init.o
    0x000032fc   0x00000058   Code   RO         3248    i.Init_Wdt          init.o
    0x00003354   0x00000074   Code   RO         2448    i.IntEnable         interrupt.o
    0x000033c8   0x00000010   Code   RO         2450    i.IntMasterDisable  interrupt.o
    0x000033d8   0x00000010   Code   RO         2451    i.IntMasterEnable   interrupt.o
    0x000033e8   0x00000034   Code   RO         2459    i.IntPrioritySet    interrupt.o
    0x0000341c   0x0000017c   Code   RO         3635    i.MFuction_Clk_Cfg  eng_err.o
    0x00003598   0x0000010c   Code   RO         3361    i.Mea_Period_Pr     interrupt_api.o
    0x000036a4   0x000000b8   Code   RO         3249    i.Read_Mtr_Numb     init.o
    0x0000375c   0x00000066   Code   RO            9    i.SSIConfigSetExpClk  ssi.o
    0x000037c2   0x0000000a   Code   RO           17    i.SSIEnable         ssi.o
    0x000037cc   0x000000dc   Code   RO         3362    i.SZPLS_Interrupt_Pr  interrupt_api.o
    0x000038a8   0x00000040   Code   RO         4407    i.Set_CAN1MsgRam    usr_lib.o
    0x000038e8   0x000000f0   Code   RO         4408    i.Set_MsgRam        usr_lib.o
    0x000039d8   0x00000108   Code   RO          189    i.SysCtlClockGet    sysctl.o
    0x00003ae0   0x0000014c   Code   RO          191    i.SysCtlClockSet    sysctl.o
    0x00003c2c   0x00000034   Code   RO          220    i.SysCtlPeripheralEnable  sysctl.o
    0x00003c60   0x00000012   Code   RO          796    i.SysTickEnable     systick.o
    0x00003c72   0x00000012   Code   RO          798    i.SysTickIntEnable  systick.o
    0x00003c84   0x000000a0   Code   RO         3363    i.SysTickIntHandler  interrupt_api.o
    0x00003d24   0x0000000a   Code   RO          802    i.SysTickPeriodSet  systick.o
    0x00003d2e   0x00000002   PAD
    0x00003d30   0x00000030   Code   RO         3364    i.Timer0AIntHandler  interrupt_api.o
    0x00003d60   0x00000034   Code   RO         3365    i.Timer0BIntHandler  interrupt_api.o
    0x00003d94   0x00000030   Code   RO         3366    i.Timer1AIntHandler  interrupt_api.o
    0x00003dc4   0x0000005c   Code   RO         3367    i.Timer1BIntHandler  interrupt_api.o
    0x00003e20   0x00000070   Code   RO         3368    i.Timer2AIntHandler  interrupt_api.o
    0x00003e90   0x00000034   Code   RO         3369    i.Timer2BIntHandler  interrupt_api.o
    0x00003ec4   0x00000060   Code   RO         3370    i.Timer3AIntHandler  interrupt_api.o
    0x00003f24   0x00000054   Code   RO         3371    i.Timer3BIntHandler  interrupt_api.o
    0x00003f78   0x00000074   Code   RO         3372    i.Timer4AIntHandler  interrupt_api.o
    0x00003fec   0x00000094   Code   RO         3373    i.Timer4BIntHandler  interrupt_api.o
    0x00004080   0x0000008c   Code   RO         3374    i.Timer5AIntHandler  interrupt_api.o
    0x0000410c   0x00000060   Code   RO          865    i.TimerConfigure    timer.o
    0x0000416c   0x00000016   Code   RO          866    i.TimerControlEvent  timer.o
    0x00004182   0x00000016   Code   RO          868    i.TimerControlStall  timer.o
    0x00004198   0x0000000e   Code   RO          873    i.TimerDisable      timer.o
    0x000041a6   0x0000000e   Code   RO          874    i.TimerEnable       timer.o
    0x000041b4   0x00000004   Code   RO          875    i.TimerIntClear     timer.o
    0x000041b8   0x00000008   Code   RO          877    i.TimerIntEnable    timer.o
    0x000041c0   0x0000000c   Code   RO          879    i.TimerIntStatus    timer.o
    0x000041cc   0x00000010   Code   RO          883    i.TimerLoadSet      timer.o
    0x000041dc   0x00000010   Code   RO          887    i.TimerMatchSet     timer.o
    0x000041ec   0x0000000e   Code   RO          896    i.TimerValueGet     timer.o
    0x000041fa   0x00000002   PAD
    0x000041fc   0x0000014c   Code   RO         3375    i.UART0IntHandler   interrupt_api.o
    0x00004348   0x0000014c   Code   RO         3376    i.UART1IntHandler   interrupt_api.o
    0x00004494   0x0000014c   Code   RO         3377    i.UART3IntHandler   interrupt_api.o
    0x000045e0   0x0000014c   Code   RO         3378    i.UART5IntHandler   interrupt_api.o
    0x0000472c   0x0000014c   Code   RO         3379    i.UART6IntHandler   interrupt_api.o
    0x00004878   0x00000012   Code   RO         1108    i.UARTCharGet       uart.o
    0x0000488a   0x00000010   Code   RO         1110    i.UARTCharPut       uart.o
    0x0000489a   0x0000000c   Code   RO         1112    i.UARTCharsAvail    uart.o
    0x000048a6   0x0000004c   Code   RO         1116    i.UARTConfigSetExpClk  uart.o
    0x000048f2   0x00000020   Code   RO         1119    i.UARTDisable       uart.o
    0x00004912   0x00000014   Code   RO         1121    i.UARTEnable        uart.o
    0x00004926   0x00000008   Code   RO         1126    i.UARTFIFOLevelSet  uart.o
    0x0000492e   0x00000004   Code   RO         1129    i.UARTIntClear      uart.o
    0x00004932   0x00000008   Code   RO         1131    i.UARTIntEnable     uart.o
    0x0000493a   0x0000000c   Code   RO         1133    i.UARTIntStatus     uart.o
    0x00004946   0x00000002   PAD
    0x00004948   0x0000006c   Code   RO         3170    i.Update_Mtr_Num    disp.o
    0x000049b4   0x0000009c   Code   RO         3171    i.Update_N_Buf      disp.o
    0x00004a50   0x00000018   Code   RO         4409    i.WDTFeed           usr_lib.o
    0x00004a68   0x0000000c   Code   RO         3380    i.WatchDogHandler   interrupt_api.o
    0x00004a74   0x0000000a   Code   RO         1565    i.WatchdogEnable    watchdog.o
    0x00004a7e   0x00000006   Code   RO         1566    i.WatchdogIntClear  watchdog.o
    0x00004a84   0x00000006   Code   RO         1574    i.WatchdogReloadGet  watchdog.o
    0x00004a8a   0x00000004   Code   RO         1575    i.WatchdogReloadSet  watchdog.o
    0x00004a8e   0x0000000a   Code   RO         1577    i.WatchdogResetEnable  watchdog.o
    0x00004a98   0x0000000e   Code   RO         1580    i.WatchdogStallEnable  watchdog.o
    0x00004aa6   0x00000002   PAD
    0x00004aa8   0x0000000c   Code   RO         1581    i.WatchdogUnlock    watchdog.o
    0x00004ab4   0x00000028   Code   RO         4723    i.__0sprintf        mc_w.l(printfa.o)
    0x00004adc   0x0000000e   Code   RO         4823    i.__scatterload_copy  mc_w.l(handlers.o)
    0x00004aea   0x00000002   Code   RO         4824    i.__scatterload_null  mc_w.l(handlers.o)
    0x00004aec   0x0000000e   Code   RO         4825    i.__scatterload_zeroinit  mc_w.l(handlers.o)
    0x00004afa   0x00000002   PAD
    0x00004afc   0x00000184   Code   RO         4728    i._fp_digits        mc_w.l(printfa.o)
    0x00004c80   0x000006dc   Code   RO         4729    i._printf_core      mc_w.l(printfa.o)
    0x0000535c   0x00000024   Code   RO         4730    i._printf_post_padding  mc_w.l(printfa.o)
    0x00005380   0x0000002e   Code   RO         4731    i._printf_pre_padding  mc_w.l(printfa.o)
    0x000053ae   0x0000000a   Code   RO         4733    i._sputc            mc_w.l(printfa.o)
    0x000053b8   0x0000005c   Code   RO         3531    i.main              main.o
    0x00005414   0x000001cc   Data   RO          243    .constdata          sysctl.o
    0x000055e0   0x00000020   Data   RO         1707    .constdata          can.o
    0x00005600   0x00000210   Data   RO         2184    .constdata          gpio.o
    0x00005810   0x0000010c   Data   RO         2464    .constdata          interrupt.o
    0x0000591c   0x000000e4   Data   RO         3251    .constdata          init.o
    0x00005a00   0x00000020   Data   RO         3547    .constdata          uart_api.o
    0x00005a20   0x000000a0   Data   RO         3731    .constdata          eng_err.o
    0x00005ac0   0x00000020   Data   RO         4821    Region$$Table       anon$$obj.o


    Execution Region RW_IRAM1 (Base: 0x20000000, Size: 0x00005408, Max: 0x00008000, ABSOLUTE, COMPRESSED[0x0000000c])

    Base Addr    Size         Type   Attr      Idx    E Section Name        Object

    0x20000000   0x00000188   Data   RW         2874    .data               bitvari.o
    0x20000188   0x000002ae   Data   RW         3584    .data               vari.o
    0x20000436   0x00000002   PAD
    0x20000438   0x00004bd0   Zero   RW         3583    .bss                vari.o
    0x20005008   0x00000400   Zero   RW         2867    STACK               startup_rvmdk.o


==============================================================================

Image component sizes


      Code (inc. data)   RO Data    RW Data    ZI Data      Debug   Object Name

        42          0          0          0          0       1967   adc.o
         0          0          0        392          0       5729   bitvari.o
       424          4         32          0          0       7966   can.o
         0          0          0          0          0       1544   can_api.o
      1012        144          0          0          0       3763   clk_err.o
        38          0          0          0          0        508   cpu.o
       264         46          0          0          0       2828   disp.o
      1584        296        160          0          0      24422   eng_err.o
        64         10          0          0          0        521   flash.o
       870         10        528          0          0       9984   gpio.o
      4578        826        228          0          0      28648   init.o
       200         14        268          0          0       2898   interrupt.o
      4670        830          0          0          0      34823   interrupt_api.o
        92          8          0          0          0        451   main.o
       112          0          0          0          0       5773   ssi.o
       664        620          0          0       1024        248   startup_rvmdk.o
       654         50        460          0          0       5627   sysctl.o
        46          0          0          0          0       1210   systick.o
       238         12          0          0          0       5515   timer.o
       206          0          0          0          0       4928   uart.o
         0          0         32          0          0        520   uart_api.o
      1298         16          0          0          0      24369   usr_lib.o
         0          0          0        686      19408      23020   vari.o
        62          4          0          0          0       3137   watchdog.o

    ----------------------------------------------------------------------
     17142       2890       1740       1080      20432     200399   Object Totals
         0          0         32          0          0          0   (incl. Generated)
        24          0          0          2          0          0   (incl. Padding)

    ----------------------------------------------------------------------

      Code (inc. data)   RO Data    RW Data    ZI Data      Debug   Library Member Name

        58          0          0          0          0          0   __dczerorl.o
         0          0          0          0          0          0   entry.o
         0          0          0          0          0          0   entry10a.o
         0          0          0          0          0          0   entry11a.o
         8          4          0          0          0          0   entry2.o
         4          0          0          0          0          0   entry5.o
         0          0          0          0          0          0   entry7b.o
         0          0          0          0          0          0   entry8b.o
         8          4          0          0          0          0   entry9a.o
        30          0          0          0          0          0   handlers.o
        36          8          0          0          0         68   init.o
         0          0          0          0          0          0   iusefp.o
        30          0          0          0          0         68   llshl.o
        36          0          0          0          0         68   llsshr.o
        32          0          0          0          0         68   llushr.o
        36          0          0          0          0        108   memseta.o
      2276         86          0          0          0        520   printfa.o
        14          0          0          0          0         68   strlen.o
        44          0          0          0          0         80   uidiv.o
        98          0          0          0          0         92   uldiv.o
        48          0          0          0          0         68   cdrcmple.o
        20          0          0          0          0         68   cfcmple.o
        20          0          0          0          0         68   cfrcmple.o
       334          0          0          0          0        148   dadd.o
       222          0          0          0          0        100   ddiv.o
       186          0          0          0          0        176   depilogue.o
        62          0          0          0          0         80   dfixi.o
        50          0          0          0          0         76   dfixui.o
        48          0          0          0          0         68   dfixul.o
        26          0          0          0          0         76   dfltui.o
       228          0          0          0          0         96   dmul.o
        38          0          0          0          0         68   f2d.o
       124          0          0          0          0         88   fdiv.o
       110          0          0          0          0        168   fepilogue.o
        40          0          0          0          0         68   ffixui.o
        10          0          0          0          0         68   ffltui.o
       100          0          0          0          0         76   fmul.o

    ----------------------------------------------------------------------
      4382        102          0          0          0       2700   Library Totals
         6          0          0          0          0          0   (incl. Padding)

    ----------------------------------------------------------------------

      Code (inc. data)   RO Data    RW Data    ZI Data      Debug   Library Name

      2710        102          0          0          0       1140   mc_w.l
      1666          0          0          0          0       1560   mf_w.l

    ----------------------------------------------------------------------
      4382        102          0          0          0       2700   Library Totals

    ----------------------------------------------------------------------

==============================================================================


      Code (inc. data)   RO Data    RW Data    ZI Data      Debug   

     21524       2992       1740       1080      20432     195219   Grand Totals
     21524       2992       1740         12      20432     195219   ELF Image Totals (compressed)
     21524       2992       1740         12          0          0   ROM Totals

==============================================================================

    Total RO  Size (Code + RO Data)                23264 (  22.72kB)
    Total RW  Size (RW Data + ZI Data)             21512 (  21.01kB)
    Total ROM Size (Code + RO Data + RW Data)      23276 (  22.73kB)

==============================================================================

